(dp1
S'output'
p2
S"<class 'urllib2.HTTPError'> HTTP Error 422: Unprocessable Entity"
p3
sS'layer'
p4
S'C:\\Users\\mansi\\Downloads\\web2py_src\\web2py\\applications\\smartapp\\controllers/default.py'
p5
sS'code'
p6
S'# -*- coding: utf-8 -*-\n# this file is released under public domain and you can use without limitations\n\n#########################################################################\n## This is a sample controller\n## - index is the default action of any application\n## - user is required for authentication and authorization\n## - download is for downloading files uploaded in the db (does streaming)\n## - api is an example of Hypermedia API support and access control\n#########################################################################\nimport gluon.contrib.simplejson as json\n\ndef register():\n\n    uemail=request.vars.uemail\n    password=request.vars.password\n    phone=request.vars.phone\n    address=request.vars.address\n    zipcode=request.vars.zipcode\n    code =412\n    message="error"\n    if uemail:\n        if password :\n            if phone :\n                if address :\n                    if zipcode :\n                        user_id=db.users.insert(uemail=uemail,password=password,phone=phone,address=address,zipcode=zipcode)\n                        if user_id:\n                                 message="success"\n                                 code=200\n\n    response.headers[\'Content-Type\']=\'application/json\'\n\n    response.status=int(code)\n    return json.dumps(dict(message=message))\n\ndef login():\n    import cgi\n    response.flash="Welcome"\n    id=request.vars.uemail\n    pwd=request.vars.password\n    rows=db(db.users.uemail==id).select(db.users.password)\n\n    if rows :\n        message="invalid username"\n        code=401\n        if(str(rows[0].password)==pwd) :\n            message="success"\n            code=200\n        else :\n            message="invalid  password"\n            code=401\n\n    else :\n       message="invalid username "\n       code=401\n\n    response.headers[\'Content-Type\']=\'application/json\'\n    response.status=int(code)\n    return json.dumps(dict(message=message))\n\n\ndef authenticate(uemail, password):\n\n    role= db((db.users.uemail== uemail)&(db.users.password==password)).select(db.users.role)\n    return role\n\ndef addplace():\n\n    uemail=request.vars.uemail\n    password=request.vars.password\n\n\n    place_desc=request.vars.place_desc\n    place_name=request.vars.place_name\n    place_addr=request.vars.place_addr\n\n\n    role=authenticate(uemail,password)\n\n    if(role =="admin"):\n\n        #insert into gimbal server and get place-id , place_lat, place_long\n\n\n        #insert into datastore\n\n        place_id=db.users.insert(place_desc=place_desc,place_name=place_name,place_addr=place_addr,place_lat=place_lat,place_long=place_long)\n\n\ndef getplace():\n\n\n    import urllib, urllib2, base64\n\n    args={}\n    headers = {\n     \'Authorization\': \'Token token=f50ccc1aab3314434ae32dada87312cb\',\n     \'content-type\': \'application/json\'\n     }\n    req = urllib2.Request(\n        \'https://manager.gimbal.com/api/v2/places\',\n        args, headers)\n    return  json.loads(urllib2.urlopen(req).read())\n\n    r = request.get(url=url,header=headers)\n    print r\n\ndef index():\n    """\n    example action using the internationalization operator T and flash\n    rendered by views/default/index.html or views/generic.html\n\n    if you need a simple wiki simply replace the two lines below with:\n    return auth.wiki()\n    """\n    response.flash = T("Welcome to web2py!")\n    return dict(message=T(\'Hello World\'))\n\n\ndef user():\n    """\n    exposes:\n    http://..../[app]/default/user/login\n    http://..../[app]/default/user/logout\n    http://..../[app]/default/user/register\n    http://..../[app]/default/user/profile\n    http://..../[app]/default/user/retrieve_password\n    http://..../[app]/default/user/change_password\n    http://..../[app]/default/user/manage_users (requires membership in\n    use @auth.requires_login()\n        @auth.requires_membership(\'group name\')\n        @auth.requires_permission(\'read\',\'table name\',record_id)\n    to decorate functions that need access control\n    """\n    return dict(form=auth())\n\n\n@cache.action()\ndef download():\n    """\n    allows downloading of uploaded files\n    http://..../[app]/default/download/[filename]\n    """\n    return response.download(request, db)\n\n\ndef call():\n    """\n    exposes services. for example:\n    http://..../[app]/default/call/jsonrpc\n    decorate with @services.jsonrpc the functions to expose\n    supports xml, json, xmlrpc, jsonrpc, amfrpc, rss, csv\n    """\n    return service()\n\n\n@auth.requires_login() \ndef api():\n    """\n    this is example of API with access control\n    WEB2PY provides Hypermedia API (Collection+JSON) Experimental\n    """\n    from gluon.contrib.hypermedia import Collection\n    rules = {\n        \'<tablename>\': {\'GET\':{},\'POST\':{},\'PUT\':{},\'DELETE\':{}},\n        }\n    return Collection(db).process(request,response,rules)\n\nresponse._vars=response._caller(getplace)\n'
p7
sS'snapshot'
p8
(dp9
S'exception'
p10
(dp11
S'__module__'
p12
S"'urllib2'"
p13
sg6
S'422'
p14
sS'__getslice__'
p15
S"<method-wrapper '__getslice__' of HTTPError object>"
p16
sS'__str__'
p17
S'<bound method HTTPError.__str__ of HTTPError()>'
p18
sS'__reduce__'
p19
S'<built-in method __reduce__ of HTTPError object>'
p20
sS'strerror'
p21
S'None'
p22
sS'__dict__'
p23
S"{'__iter__': <bound method _fileobject.__iter__ of <socket._fileobject object>>, 'code': 422, 'fileno': <bound method _fileobject.fileno of <socket._fileobject object>>, 'fp': <addinfourl at 152654352 whose fp = <socket._fileobject object>>, 'hdrs': <httplib.HTTPMessage instance>, 'headers': <httplib.HTTPMessage instance>, 'msg': 'Unprocessable Entity', 'next': <bound method _fileobject.next of <socket._fileobject object>>, 'read': <bound method _fileobject.read of <socket._fileobject object>>, 'readline': <bound method _fileobject.readline of <socket._fileobject object>>, ...}"
p24
sS'close'
p25
S'<bound method HTTPError.close of HTTPError()>'
p26
sS'__sizeof__'
p27
S'<built-in method __sizeof__ of HTTPError object>'
p28
sS'next'
p29
S'<bound method _fileobject.next of <socket._fileobject object>>'
p30
sS'__weakref__'
p31
S'None'
p32
sS'__init__'
p33
S'<bound method HTTPError.__init__ of HTTPError()>'
p34
sS'__setattr__'
p35
S"<method-wrapper '__setattr__' of HTTPError object>"
p36
sS'__reduce_ex__'
p37
S'<built-in method __reduce_ex__ of HTTPError object>'
p38
sS'__new__'
p39
S'<built-in method __new__ of type object>'
p40
sS'headers'
p41
S'<httplib.HTTPMessage instance>'
p42
sS'errno'
p43
S'None'
p44
sS'readlines'
p45
S'<bound method _fileobject.readlines of <socket._fileobject object>>'
p46
sS'__format__'
p47
S'<built-in method __format__ of HTTPError object>'
p48
sS'__class__'
p49
S"<class 'urllib2.HTTPError'>"
p50
sS'filename'
p51
S"'https://manager.gimbal.com/api/v2/places'"
p52
sS'_HTTPError__super_init'
p53
S'<bound method HTTPError.__init__ of HTTPError()>'
p54
sS'msg'
p55
S"'Unprocessable Entity'"
p56
sS'__doc__'
p57
S"'Raised when HTTP error occurs, but also acts like non-error return'"
p58
sS'fp'
p59
S'<addinfourl at 152654352 whose fp = <socket._fileobject object>>'
p60
sS'hdrs'
p61
S'<httplib.HTTPMessage instance>'
p62
sS'__getitem__'
p63
S"<method-wrapper '__getitem__' of HTTPError object>"
p64
sS'__setstate__'
p65
S'<built-in method __setstate__ of HTTPError object>'
p66
sS'read'
p67
S'<bound method _fileobject.read of <socket._fileobject object>>'
p68
sS'__getattribute__'
p69
S"<method-wrapper '__getattribute__' of HTTPError object>"
p70
sS'args'
p71
S'()'
p72
sS'__iter__'
p73
S'<bound method _fileobject.__iter__ of <socket._fileobject object>>'
p74
sS'__subclasshook__'
p75
S'<built-in method __subclasshook__ of type object>'
p76
sS'readline'
p77
S'<bound method _fileobject.readline of <socket._fileobject object>>'
p78
sS'__unicode__'
p79
S'<built-in method __unicode__ of HTTPError object>'
p80
sS'info'
p81
S'<bound method HTTPError.info of HTTPError()>'
p82
sS'fileno'
p83
S'<bound method _fileobject.fileno of <socket._fileobject object>>'
p84
sS'getcode'
p85
S'<bound method HTTPError.getcode of HTTPError()>'
p86
sS'url'
p87
S"'https://manager.gimbal.com/api/v2/places'"
p88
sS'reason'
p89
S"'Unprocessable Entity'"
p90
sS'geturl'
p91
S'<bound method HTTPError.geturl of HTTPError()>'
p92
sS'__delattr__'
p93
S"<method-wrapper '__delattr__' of HTTPError object>"
p94
sS'__repr__'
p95
S"<method-wrapper '__repr__' of HTTPError object>"
p96
sS'__hash__'
p97
S"<method-wrapper '__hash__' of HTTPError object>"
p98
ssS'evalue'
p99
S'HTTP Error 422: Unprocessable Entity'
p100
sS'request'
p101
cgluon.html
XML_unpickle
p102
(S's\xd8a\x00\x00<div><table><tr><td style="font-weight:bold;vertical-align:top;">ajax</td><td style="vertical-align:top;">:</td><td><div>False</div></td></tr><tr><td style="font-weight:bold;vertical-align:top;">application</td><td style="vertical-align:top;">:</td><td><div>smartapp</div></td></tr><tr><td style="font-weight:bold;vertical-align:top;">args</td><td style="vertical-align:top;">:</td><td><div><table></table></div></td></tr><tr><td style="font-weight:bold;vertical-align:top;">cid</td><td style="vertical-align:top;">:</td><td><div>None</div></td></tr><tr><td style="font-weight:bold;vertical-align:top;">client</td><td style="vertical-align:top;">:</td><td><div>127.0.0.1</div></td></tr><tr><td style="font-weight:bold;vertical-align:top;">controller</td><td style="vertical-align:top;">:</td><td><div>default</div></td></tr><tr><td style="font-weight:bold;vertical-align:top;">cookies</td><td style="vertical-align:top;">:</td><td><div><table><tr><td style="font-weight:bold;vertical-align:top;">session_id_admin</td><td style="vertical-align:top;">:</td><td><div>127.0.0.1-aff74a96-0568-4446-a851-a33a2d0def01<table><tr><td style="font-weight:bold;vertical-align:top;">comment</td><td style="vertical-align:top;">:</td><td><div></div></td></tr><tr><td style="font-weight:bold;vertical-align:top;">domain</td><td style="vertical-align:top;">:</td><td><div></div></td></tr><tr><td style="font-weight:bold;vertical-align:top;">expires</td><td style="vertical-align:top;">:</td><td><div></div></td></tr><tr><td style="font-weight:bold;vertical-align:top;">httponly</td><td style="vertical-align:top;">:</td><td><div></div></td></tr><tr><td style="font-weight:bold;vertical-align:top;">max-age</td><td style="vertical-align:top;">:</td><td><div></div></td></tr><tr><td style="font-weight:bold;vertical-align:top;">path</td><td style="vertical-align:top;">:</td><td><div></div></td></tr><tr><td style="font-weight:bold;vertical-align:top;">secure</td><td style="vertical-align:top;">:</td><td><div></div></td></tr><tr><td style="font-weight:bold;vertical-align:top;">version</td><td style="vertical-align:top;">:</td><td><div></div></td></tr></table></div></td></tr><tr><td style="font-weight:bold;vertical-align:top;">session_id_smartapp</td><td style="vertical-align:top;">:</td><td><div>127.0.0.1-6a8a9286-eb65-420d-b2ae-64a32aaa8cb3<table><tr><td style="font-weight:bold;vertical-align:top;">comment</td><td style="vertical-align:top;">:</td><td><div></div></td></tr><tr><td style="font-weight:bold;vertical-align:top;">domain</td><td style="vertical-align:top;">:</td><td><div></div></td></tr><tr><td style="font-weight:bold;vertical-align:top;">expires</td><td style="vertical-align:top;">:</td><td><div></div></td></tr><tr><td style="font-weight:bold;vertical-align:top;">httponly</td><td style="vertical-align:top;">:</td><td><div></div></td></tr><tr><td style="font-weight:bold;vertical-align:top;">max-age</td><td style="vertical-align:top;">:</td><td><div></div></td></tr><tr><td style="font-weight:bold;vertical-align:top;">path</td><td style="vertical-align:top;">:</td><td><div></div></td></tr><tr><td style="font-weight:bold;vertical-align:top;">secure</td><td style="vertical-align:top;">:</td><td><div></div></td></tr><tr><td style="font-weight:bold;vertical-align:top;">version</td><td style="vertical-align:top;">:</td><td><div></div></td></tr></table></div></td></tr><tr><td style="font-weight:bold;vertical-align:top;">session_id_welcome</td><td style="vertical-align:top;">:</td><td><div>127.0.0.1-4451ef03-0b2e-4412-a5a6-66be37eda832<table><tr><td style="font-weight:bold;vertical-align:top;">comment</td><td style="vertical-align:top;">:</td><td><div></div></td></tr><tr><td style="font-weight:bold;vertical-align:top;">domain</td><td style="vertical-align:top;">:</td><td><div></div></td></tr><tr><td style="font-weight:bold;vertical-align:top;">expires</td><td style="vertical-align:top;">:</td><td><div></div></td></tr><tr><td style="font-weight:bold;vertical-align:top;">httponly</td><td style="vertical-align:top;">:</td><td><div></div></td></tr><tr><td style="font-weight:bold;vertical-align:top;">max-age</td><td style="vertical-align:top;">:</td><td><div></div></td></tr><tr><td style="font-weight:bold;vertical-align:top;">path</td><td style="vertical-align:top;">:</td><td><div></div></td></tr><tr><td style="font-weight:bold;vertical-align:top;">secure</td><td style="vertical-align:top;">:</td><td><div></div></td></tr><tr><td style="font-weight:bold;vertical-align:top;">version</td><td style="vertical-align:top;">:</td><td><div></div></td></tr></table></div></td></tr></table></div></td></tr><tr><td style="font-weight:bold;vertical-align:top;">env</td><td style="vertical-align:top;">:</td><td><div><table><tr><td style="font-weight:bold;vertical-align:top;">HTTP_ACCEPT</td><td style="vertical-align:top;">:</td><td><div>text/html,application/xhtml+xml,application/xml;q=0.9,image/webp,*/*;q=0.8</div></td></tr><tr><td style="font-weight:bold;vertical-align:top;">HTTP_ACCEPT_ENCODING</td><td style="vertical-align:top;">:</td><td><div>gzip, deflate, sdch</div></td></tr><tr><td style="font-weight:bold;vertical-align:top;">HTTP_ACCEPT_LANGUAGE</td><td style="vertical-align:top;">:</td><td><div>en-US,en;q=0.8</div></td></tr><tr><td style="font-weight:bold;vertical-align:top;">HTTP_CONNECTION</td><td style="vertical-align:top;">:</td><td><div>keep-alive</div></td></tr><tr><td style="font-weight:bold;vertical-align:top;">HTTP_COOKIE</td><td style="vertical-align:top;">:</td><td><div>session_id_welcome=127.0.0.1-4451ef03-0b2e-4412-a5a6-66be37eda832; session_id_smartapp=127.0.0.1-6a8a9286-eb65-420d-b2ae-64a32aaa8cb3; session_id_admin=127.0.0.1-aff74a96-0568-4446-a851-a33a2d0def01</div></td></tr><tr><td style="font-weight:bold;vertical-align:top;">HTTP_HOST</td><td style="vertical-align:top;">:</td><td><div>127.0.0.1:8000</div></td></tr><tr><td style="font-weight:bold;vertical-align:top;">HTTP_REFERER</td><td style="vertical-align:top;">:</td><td><div>http://127.0.0.1:8000/admin/default/edit/smartapp/controllers/default.py?id=controllers__default__py</div></td></tr><tr><td style="font-weight:bold;vertical-align:top;">HTTP_USER_AGENT</td><td style="vertical-align:top;">:</td><td><div>Mozilla/5.0 (Windows NT 6.3; WOW64) AppleWebKit/537.36 (KHTML, like Gecko) Chrome/42.0.2311.90 Safari/537.36</div></td></tr><tr><td style="font-weight:bold;vertical-align:top;">PATH_INFO</td><td style="vertical-align:top;">:</td><td><div>/smartapp/default/getplace</div></td></tr><tr><td style="font-weight:bold;vertical-align:top;">QUERY_STRING</td><td style="vertical-align:top;">:</td><td><div></div></td></tr><tr><td style="font-weight:bold;vertical-align:top;">REMOTE_ADDR</td><td style="vertical-align:top;">:</td><td><div>127.0.0.1</div></td></tr><tr><td style="font-weight:bold;vertical-align:top;">REMOTE_PORT</td><td style="vertical-align:top;">:</td><td><div>60947</div></td></tr><tr><td style="font-weight:bold;vertical-align:top;">REQUEST_METHOD</td><td style="vertical-align:top;">:</td><td><div>GET</div></td></tr><tr><td style="font-weight:bold;vertical-align:top;">SCRIPT_NAME</td><td style="vertical-align:top;">:</td><td><div></div></td></tr><tr><td style="font-weight:bold;vertical-align:top;">SERVER_NAME</td><td style="vertical-align:top;">:</td><td><div>mansi</div></td></tr><tr><td style="font-weight:bold;vertical-align:top;">SERVER_PORT</td><td style="vertical-align:top;">:</td><td><div>8000</div></td></tr><tr><td style="font-weight:bold;vertical-align:top;">SERVER_PROTOCOL</td><td style="vertical-align:top;">:</td><td><div>HTTP/1.1</div></td></tr><tr><td style="font-weight:bold;vertical-align:top;">SERVER_SOFTWARE</td><td style="vertical-align:top;">:</td><td><div>Rocket 1.2.6</div></td></tr><tr><td style="font-weight:bold;vertical-align:top;">app_folders</td><td style="vertical-align:top;">:</td><td><div>set([&#x27;C:\\\\Users\\\\mansi\\\\Downloads\\\\web2py_src\\\\web2py\\\\applications\\\\admin\\\\&#x27;, &#x27;C:\\\\Users\\\\mansi\\\\Downloads\\\\web2py_src\\\\web2py\\\\applications\\\\welcome\\\\&#x27;, &#x27;C:\\\\Users\\\\mansi\\\\Downloads\\\\web2py_src\\\\web2py\\\\applications\\\\smartapp\\\\&#x27;])</div></td></tr><tr><td style="font-weight:bold;vertical-align:top;">applications_parent</td><td style="vertical-align:top;">:</td><td><div>C:\\Users\\mansi\\Downloads\\web2py_src\\web2py</div></td></tr><tr><td style="font-weight:bold;vertical-align:top;">cmd_args</td><td style="vertical-align:top;">:</td><td><div><table></table></div></td></tr><tr><td style="font-weight:bold;vertical-align:top;">cmd_options</td><td style="vertical-align:top;">:</td><td><div>&lt;Values at 0x2f59328: {&#x27;verbose&#x27;: False, &#x27;ip&#x27;: &#x27;127.0.0.1&#x27;, &#x27;debuglevel&#x27;: 30, &#x27;with_scheduler&#x27;: False, &#x27;ips&#x27;: [&#x27;fe80::202b:cfb2:565e:a5d0%4&#x27;, &#x27;2601:9:500:4620:a984:88af:d06a:cea8&#x27;, &#x27;fe80::188d:d94:b399:8825%7&#x27;, &#x27;2001:0:9d38:6ab8:188d:d94:b399:8825&#x27;, &#x27;192.168.0.13&#x27;, &#x27;2601:9:500:4620:202b:cfb2:565e:a5d0&#x27;, &#x27;2601:9:500:4620:3623:87ff:fec5:9727&#x27;], &#x27;shutdown_timeout&#x27;: 5, &#x27;taskbar&#x27;: False, &#x27;with_coverage&#x27;: False, &#x27;scheduler_groups&#x27;: None, &#x27;port&#x27;: 8000, &#x27;maxthreads&#x27;: None, &#x27;softcron&#x27;: False, &#x27;server_name&#x27;: &#x27;mansi&#x27;, &#x27;bpython&#x27;: False, &#x27;nogui&#x27;: False, &#x27;pid_filename&#x27;: &#x27;httpserver.pid&#x27;, &#x27;extcron&#x27;: False, &#x27;runcron&#x27;: False, &#x27;run_system_tests&#x27;: False, &#x27;test&#x27;: None, &#x27;folder&#x27;: &#x27;C:\\\\Users\\\\mansi\\\\Downloads\\\\web2py_src\\\\web2py&#x27;, &#x27;config&#x27;: &#x27;&#x27;, &#x27;minthreads&#x27;: None, &#x27;shell&#x27;: None, &#x27;run&#x27;: &#x27;&#x27;, &#x27;log_filename&#x27;: &#x27;httpserver.log&#x27;, &#x27;profiler_dir&#x27;: None, &#x27;args&#x27;: [&#x27;&#x27;], &#x27;socket_timeout&#x27;: 5, &#x27;ssl_ca_certificate&#x27;: None, &#x27;scheduler&#x27;: None, &#x27;interfaces&#x27;: None, &#x27;ssl_private_key&#x27;: &#x27;&#x27;, &#x27;gae&#x27;: None, &#x27;password&#x27;: &#x27;&lt;ask&gt;&#x27;, &#x27;request_queue_size&#x27;: 5, &#x27;ssl_certificate&#x27;: &#x27;&#x27;, &#x27;cronjob&#x27;: False, &#x27;numthreads&#x27;: None, &#x27;quiet&#x27;: False, &#x27;import_models&#x27;: False, &#x27;timeout&#x27;: 10, &#x27;plain&#x27;: False, &#x27;nobanner&#x27;: False}&gt;</div></td></tr><tr><td style="font-weight:bold;vertical-align:top;">db_sessions</td><td style="vertical-align:top;">:</td><td><div>set([])</div></td></tr><tr><td style="font-weight:bold;vertical-align:top;">debugging</td><td style="vertical-align:top;">:</td><td><div>True</div></td></tr><tr><td style="font-weight:bold;vertical-align:top;">gluon_parent</td><td style="vertical-align:top;">:</td><td><div>C:\\Users\\mansi\\Downloads\\web2py_src\\web2py</div></td></tr><tr><td style="font-weight:bold;vertical-align:top;">http_accept</td><td style="vertical-align:top;">:</td><td><div>text/html,application/xhtml+xml,application/xml;q=0.9,image/webp,*/*;q=0.8</div></td></tr><tr><td style="font-weight:bold;vertical-align:top;">http_accept_encoding</td><td style="vertical-align:top;">:</td><td><div>gzip, deflate, sdch</div></td></tr><tr><td style="font-weight:bold;vertical-align:top;">http_accept_language</td><td style="vertical-align:top;">:</td><td><div>en-US,en;q=0.8</div></td></tr><tr><td style="font-weight:bold;vertical-align:top;">http_connection</td><td style="vertical-align:top;">:</td><td><div>keep-alive</div></td></tr><tr><td style="font-weight:bold;vertical-align:top;">http_cookie</td><td style="vertical-align:top;">:</td><td><div>session_id_welcome=127.0.0.1-4451ef03-0b2e-4412-a5a6-66be37eda832; session_id_smartapp=127.0.0.1-6a8a9286-eb65-420d-b2ae-64a32aaa8cb3; session_id_admin=127.0.0.1-aff74a96-0568-4446-a851-a33a2d0def01</div></td></tr><tr><td style="font-weight:bold;vertical-align:top;">http_host</td><td style="vertical-align:top;">:</td><td><div>127.0.0.1:8000</div></td></tr><tr><td style="font-weight:bold;vertical-align:top;">http_referer</td><td style="vertical-align:top;">:</td><td><div>http://127.0.0.1:8000/admin/default/edit/smartapp/controllers/default.py?id=controllers__default__py</div></td></tr><tr><td style="font-weight:bold;vertical-align:top;">http_user_agent</td><td style="vertical-align:top;">:</td><td><div>Mozilla/5.0 (Windows NT 6.3; WOW64) AppleWebKit/537.36 (KHTML, like Gecko) Chrome/42.0.2311.90 Safari/537.36</div></td></tr><tr><td style="font-weight:bold;vertical-align:top;">is_jython</td><td style="vertical-align:top;">:</td><td><div>False</div></td></tr><tr><td style="font-weight:bold;vertical-align:top;">is_pypy</td><td style="vertical-align:top;">:</td><td><div>False</div></td></tr><tr><td style="font-weight:bold;vertical-align:top;">is_source</td><td style="vertical-align:top;">:</td><td><div>True</div></td></tr><tr><td style="font-weight:bold;vertical-align:top;">local_hosts</td><td style="vertical-align:top;">:</td><td><div><table><tr><td><div>fe80::202b:cfb2:565e:a5d0%4</div></td></tr><tr><td><div>192.168.0.13</div></td></tr><tr><td><div>::ffff:127.0.0.1</div></td></tr><tr><td><div>::1</div></td></tr><tr><td><div>fe80::188d:d94:b399:8825%7</div></td></tr><tr><td><div>2601:9:500:4620:a984:88af:d06a:cea8</div></td></tr><tr><td><div>mansi</div></td></tr><tr><td><div>2001:0:9d38:6ab8:188d:d94:b399:8825</div></td></tr><tr><td><div>2601:9:500:4620:202b:cfb2:565e:a5d0</div></td></tr><tr><td><div>127.0.0.1</div></td></tr><tr><td><div>2601:9:500:4620:3623:87ff:fec5:9727</div></td></tr></table></div></td></tr><tr><td style="font-weight:bold;vertical-align:top;">path_info</td><td style="vertical-align:top;">:</td><td><div>/smartapp/default/getplace</div></td></tr><tr><td style="font-weight:bold;vertical-align:top;">query_string</td><td style="vertical-align:top;">:</td><td><div></div></td></tr><tr><td style="font-weight:bold;vertical-align:top;">remote_addr</td><td style="vertical-align:top;">:</td><td><div>127.0.0.1</div></td></tr><tr><td style="font-weight:bold;vertical-align:top;">remote_port</td><td style="vertical-align:top;">:</td><td><div>60947</div></td></tr><tr><td style="font-weight:bold;vertical-align:top;">request_method</td><td style="vertical-align:top;">:</td><td><div>GET</div></td></tr><tr><td style="font-weight:bold;vertical-align:top;">request_uri</td><td style="vertical-align:top;">:</td><td><div>/smartapp/default/getplace</div></td></tr><tr><td style="font-weight:bold;vertical-align:top;">script_name</td><td style="vertical-align:top;">:</td><td><div></div></td></tr><tr><td style="font-weight:bold;vertical-align:top;">server_name</td><td style="vertical-align:top;">:</td><td><div>mansi</div></td></tr><tr><td style="font-weight:bold;vertical-align:top;">server_port</td><td style="vertical-align:top;">:</td><td><div>8000</div></td></tr><tr><td style="font-weight:bold;vertical-align:top;">server_protocol</td><td style="vertical-align:top;">:</td><td><div>HTTP/1.1</div></td></tr><tr><td style="font-weight:bold;vertical-align:top;">server_software</td><td style="vertical-align:top;">:</td><td><div>Rocket 1.2.6</div></td></tr><tr><td style="font-weight:bold;vertical-align:top;">web2py_path</td><td style="vertical-align:top;">:</td><td><div>C:\\Users\\mansi\\Downloads\\web2py_src\\web2py</div></td></tr><tr><td style="font-weight:bold;vertical-align:top;">web2py_version</td><td style="vertical-align:top;">:</td><td><div>2.9.12-stable+timestamp.2015.01.17.06.11.03</div></td></tr><tr><td style="font-weight:bold;vertical-align:top;">wsgi.errors</td><td style="vertical-align:top;">:</td><td><div>&lt;open file &#x27;&lt;stderr&gt;&#x27;, mode &#x27;w&#x27; at 0x01DBD0D0&gt;</div></td></tr><tr><td style="font-weight:bold;vertical-align:top;">wsgi.file_wrapper</td><td style="vertical-align:top;">:</td><td><div>&lt;class wsgiref.util.FileWrapper at 0x02008180&gt;</div></td></tr><tr><td style="font-weight:bold;vertical-align:top;">wsgi.input</td><td style="vertical-align:top;">:</td><td><div>&lt;socket._fileobject object at 0x096DE7B0&gt;</div></td></tr><tr><td style="font-weight:bold;vertical-align:top;">wsgi.multiprocess</td><td style="vertical-align:top;">:</td><td><div>False</div></td></tr><tr><td style="font-weight:bold;vertical-align:top;">wsgi.multithread</td><td style="vertical-align:top;">:</td><td><div>True</div></td></tr><tr><td style="font-weight:bold;vertical-align:top;">wsgi.run_once</td><td style="vertical-align:top;">:</td><td><div>False</div></td></tr><tr><td style="font-weight:bold;vertical-align:top;">wsgi.url_scheme</td><td style="vertical-align:top;">:</td><td><div>http</div></td></tr><tr><td style="font-weight:bold;vertical-align:top;">wsgi.version</td><td style="vertical-align:top;">:</td><td><div><table><tr><td><div>1</div></td></tr><tr><td><div>0</div></td></tr></table></div></td></tr><tr><td style="font-weight:bold;vertical-align:top;">wsgi_errors</td><td style="vertical-align:top;">:</td><td><div>&lt;open file &#x27;&lt;stderr&gt;&#x27;, mode &#x27;w&#x27; at 0x01DBD0D0&gt;</div></td></tr><tr><td style="font-weight:bold;vertical-align:top;">wsgi_file_wrapper</td><td style="vertical-align:top;">:</td><td><div>&lt;class wsgiref.util.FileWrapper at 0x02008180&gt;</div></td></tr><tr><td style="font-weight:bold;vertical-align:top;">wsgi_input</td><td style="vertical-align:top;">:</td><td><div>&lt;socket._fileobject object at 0x096DE7B0&gt;</div></td></tr><tr><td style="font-weight:bold;vertical-align:top;">wsgi_multiprocess</td><td style="vertical-align:top;">:</td><td><div>False</div></td></tr><tr><td style="font-weight:bold;vertical-align:top;">wsgi_multithread</td><td style="vertical-align:top;">:</td><td><div>True</div></td></tr><tr><td style="font-weight:bold;vertical-align:top;">wsgi_run_once</td><td style="vertical-align:top;">:</td><td><div>False</div></td></tr><tr><td style="font-weight:bold;vertical-align:top;">wsgi_url_scheme</td><td style="vertical-align:top;">:</td><td><div>http</div></td></tr><tr><td style="font-weight:bold;vertical-align:top;">wsgi_version</td><td style="vertical-align:top;">:</td><td><div><table><tr><td><div>1</div></td></tr><tr><td><div>0</div></td></tr></table></div></td></tr></table></div></td></tr><tr><td style="font-weight:bold;vertical-align:top;">extension</td><td style="vertical-align:top;">:</td><td><div>html</div></td></tr><tr><td style="font-weight:bold;vertical-align:top;">folder</td><td style="vertical-align:top;">:</td><td><div>C:\\Users\\mansi\\Downloads\\web2py_src\\web2py\\applications\\smartapp\\</div></td></tr><tr><td style="font-weight:bold;vertical-align:top;">function</td><td style="vertical-align:top;">:</td><td><div>getplace</div></td></tr><tr><td style="font-weight:bold;vertical-align:top;">global_settings</td><td style="vertical-align:top;">:</td><td><div><table><tr><td style="font-weight:bold;vertical-align:top;">app_folders</td><td style="vertical-align:top;">:</td><td><div>set([&#x27;C:\\\\Users\\\\mansi\\\\Downloads\\\\web2py_src\\\\web2py\\\\applications\\\\admin\\\\&#x27;, &#x27;C:\\\\Users\\\\mansi\\\\Downloads\\\\web2py_src\\\\web2py\\\\applications\\\\welcome\\\\&#x27;, &#x27;C:\\\\Users\\\\mansi\\\\Downloads\\\\web2py_src\\\\web2py\\\\applications\\\\smartapp\\\\&#x27;])</div></td></tr><tr><td style="font-weight:bold;vertical-align:top;">applications_parent</td><td style="vertical-align:top;">:</td><td><div>C:\\Users\\mansi\\Downloads\\web2py_src\\web2py</div></td></tr><tr><td style="font-weight:bold;vertical-align:top;">cmd_args</td><td style="vertical-align:top;">:</td><td><div><table></table></div></td></tr><tr><td style="font-weight:bold;vertical-align:top;">cmd_options</td><td style="vertical-align:top;">:</td><td><div>&lt;Values at 0x2f59328: {&#x27;verbose&#x27;: False, &#x27;ip&#x27;: &#x27;127.0.0.1&#x27;, &#x27;debuglevel&#x27;: 30, &#x27;with_scheduler&#x27;: False, &#x27;ips&#x27;: [&#x27;fe80::202b:cfb2:565e:a5d0%4&#x27;, &#x27;2601:9:500:4620:a984:88af:d06a:cea8&#x27;, &#x27;fe80::188d:d94:b399:8825%7&#x27;, &#x27;2001:0:9d38:6ab8:188d:d94:b399:8825&#x27;, &#x27;192.168.0.13&#x27;, &#x27;2601:9:500:4620:202b:cfb2:565e:a5d0&#x27;, &#x27;2601:9:500:4620:3623:87ff:fec5:9727&#x27;], &#x27;shutdown_timeout&#x27;: 5, &#x27;taskbar&#x27;: False, &#x27;with_coverage&#x27;: False, &#x27;scheduler_groups&#x27;: None, &#x27;port&#x27;: 8000, &#x27;maxthreads&#x27;: None, &#x27;softcron&#x27;: False, &#x27;server_name&#x27;: &#x27;mansi&#x27;, &#x27;bpython&#x27;: False, &#x27;nogui&#x27;: False, &#x27;pid_filename&#x27;: &#x27;httpserver.pid&#x27;, &#x27;extcron&#x27;: False, &#x27;runcron&#x27;: False, &#x27;run_system_tests&#x27;: False, &#x27;test&#x27;: None, &#x27;folder&#x27;: &#x27;C:\\\\Users\\\\mansi\\\\Downloads\\\\web2py_src\\\\web2py&#x27;, &#x27;config&#x27;: &#x27;&#x27;, &#x27;minthreads&#x27;: None, &#x27;shell&#x27;: None, &#x27;run&#x27;: &#x27;&#x27;, &#x27;log_filename&#x27;: &#x27;httpserver.log&#x27;, &#x27;profiler_dir&#x27;: None, &#x27;args&#x27;: [&#x27;&#x27;], &#x27;socket_timeout&#x27;: 5, &#x27;ssl_ca_certificate&#x27;: None, &#x27;scheduler&#x27;: None, &#x27;interfaces&#x27;: None, &#x27;ssl_private_key&#x27;: &#x27;&#x27;, &#x27;gae&#x27;: None, &#x27;password&#x27;: &#x27;&lt;ask&gt;&#x27;, &#x27;request_queue_size&#x27;: 5, &#x27;ssl_certificate&#x27;: &#x27;&#x27;, &#x27;cronjob&#x27;: False, &#x27;numthreads&#x27;: None, &#x27;quiet&#x27;: False, &#x27;import_models&#x27;: False, &#x27;timeout&#x27;: 10, &#x27;plain&#x27;: False, &#x27;nobanner&#x27;: False}&gt;</div></td></tr><tr><td style="font-weight:bold;vertical-align:top;">db_sessions</td><td style="vertical-align:top;">:</td><td><div>set([])</div></td></tr><tr><td style="font-weight:bold;vertical-align:top;">debugging</td><td style="vertical-align:top;">:</td><td><div>True</div></td></tr><tr><td style="font-weight:bold;vertical-align:top;">gluon_parent</td><td style="vertical-align:top;">:</td><td><div>C:\\Users\\mansi\\Downloads\\web2py_src\\web2py</div></td></tr><tr><td style="font-weight:bold;vertical-align:top;">is_jython</td><td style="vertical-align:top;">:</td><td><div>False</div></td></tr><tr><td style="font-weight:bold;vertical-align:top;">is_pypy</td><td style="vertical-align:top;">:</td><td><div>False</div></td></tr><tr><td style="font-weight:bold;vertical-align:top;">is_source</td><td style="vertical-align:top;">:</td><td><div>True</div></td></tr><tr><td style="font-weight:bold;vertical-align:top;">local_hosts</td><td style="vertical-align:top;">:</td><td><div><table><tr><td><div>fe80::202b:cfb2:565e:a5d0%4</div></td></tr><tr><td><div>192.168.0.13</div></td></tr><tr><td><div>::ffff:127.0.0.1</div></td></tr><tr><td><div>::1</div></td></tr><tr><td><div>fe80::188d:d94:b399:8825%7</div></td></tr><tr><td><div>2601:9:500:4620:a984:88af:d06a:cea8</div></td></tr><tr><td><div>mansi</div></td></tr><tr><td><div>2001:0:9d38:6ab8:188d:d94:b399:8825</div></td></tr><tr><td><div>2601:9:500:4620:202b:cfb2:565e:a5d0</div></td></tr><tr><td><div>127.0.0.1</div></td></tr><tr><td><div>2601:9:500:4620:3623:87ff:fec5:9727</div></td></tr></table></div></td></tr><tr><td style="font-weight:bold;vertical-align:top;">web2py_version</td><td style="vertical-align:top;">:</td><td><div>2.9.12-stable+timestamp.2015.01.17.06.11.03</div></td></tr></table></div></td></tr><tr><td style="font-weight:bold;vertical-align:top;">is_https</td><td style="vertical-align:top;">:</td><td><div>False</div></td></tr><tr><td style="font-weight:bold;vertical-align:top;">is_local</td><td style="vertical-align:top;">:</td><td><div>True</div></td></tr><tr><td style="font-weight:bold;vertical-align:top;">is_restful</td><td style="vertical-align:top;">:</td><td><div>False</div></td></tr><tr><td style="font-weight:bold;vertical-align:top;">is_sheduler</td><td style="vertical-align:top;">:</td><td><div>None</div></td></tr><tr><td style="font-weight:bold;vertical-align:top;">is_shell</td><td style="vertical-align:top;">:</td><td><div>None</div></td></tr><tr><td style="font-weight:bold;vertical-align:top;">now</td><td style="vertical-align:top;">:</td><td><div>datetime.datetime(2015, 4, 23, 12, 11, 59, 527000)</div></td></tr><tr><td style="font-weight:bold;vertical-align:top;">raw_args</td><td style="vertical-align:top;">:</td><td><div></div></td></tr><tr><td style="font-weight:bold;vertical-align:top;">raw_extension</td><td style="vertical-align:top;">:</td><td><div>None</div></td></tr><tr><td style="font-weight:bold;vertical-align:top;">url</td><td style="vertical-align:top;">:</td><td><div>/smartapp/default/getplace</div></td></tr><tr><td style="font-weight:bold;vertical-align:top;">utcnow</td><td style="vertical-align:top;">:</td><td><div>datetime.datetime(2015, 4, 23, 18, 11, 59, 527000)</div></td></tr><tr><td style="font-weight:bold;vertical-align:top;">uuid</td><td style="vertical-align:top;">:</td><td><div>smartapp/127.0.0.1.2015-04-23.12-11-59.d1ba2869-c9ba-4122-8983-dc4ec39ad2b0</div></td></tr><tr><td style="font-weight:bold;vertical-align:top;">wsgi</td><td style="vertical-align:top;">:</td><td><div>&lt;gluon.main.LazyWSGI object at 0x098D22B0&gt;</div></td></tr></table></div>'
tRp103
sS'frames'
p104
(lp105
(dp106
S'file'
p107
S'C:\\Users\\mansi\\Downloads\\web2py_src\\web2py\\gluon\\restricted.py'
p108
sS'dump'
p109
(dp110
S'environment'
p111
S"{'A': <class 'gluon.html.A'>, 'ANY_OF': <class 'gluon.validators.ANY_OF'>, 'ASSIGNJS': <function ASSIGNJS>, 'Auth': <class 'gluon.tools.Auth'>, 'B': <class 'gluon.html.B'>, 'BEAUTIFY': <class 'gluon.html.BEAUTIFY'>, 'BODY': <class 'gluon.html.BODY'>, 'BR': <class 'gluon.html.BR'>, 'BUTTON': <class 'gluon.html.BUTTON'>, 'CAT': <class 'gluon.html.CAT'>, ...}"
p112
sS'ccode'
p113
S'<code object <module> at 088EC4E8, file "C:\\User...ations\\smartapp\\controllers/default.py", line 11>'
p114
ssS'lnum'
p115
I224
sS'lines'
p116
(dp117
I224
S'        exec ccode in environment'
p118
sI225
S'    except HTTP:'
p119
sI226
S'        raise'
p120
sI227
S'    except RestrictedError:'
p121
sI228
S'        # do not encapsulate (obfuscate) the original RestrictedError'
p122
sI219
S'    try:'
p123
sI220
S'        if isinstance(code, types.CodeType):'
p124
sI221
S'            ccode = code'
p125
sI222
S'        else:'
p126
sI223
S'            ccode = compile2(code, layer)'
p127
ssS'call'
p128
S"(code='# -*- coding: utf-8 -*-\\n# this file is released ...ules)\\n\\nresponse._vars=response._caller(getplace)\\n', environment={'A': <class 'gluon.html.A'>, 'ANY_OF': <class 'gluon.validators.ANY_OF'>, 'ASSIGNJS': <function ASSIGNJS>, 'Auth': <class 'gluon.tools.Auth'>, 'B': <class 'gluon.html.B'>, 'BEAUTIFY': <class 'gluon.html.BEAUTIFY'>, 'BODY': <class 'gluon.html.BODY'>, 'BR': <class 'gluon.html.BR'>, 'BUTTON': <class 'gluon.html.BUTTON'>, 'CAT': <class 'gluon.html.CAT'>, ...}, layer=r'C:\\Users\\mansi\\Downloads\\web2py_src\\web2py\\applications\\smartapp\\controllers/default.py')"
p129
sS'func'
p130
S'restricted'
p131
sa(dp132
g107
S'C:\\Users\\mansi\\Downloads\\web2py_src\\web2py\\applications\\smartapp\\controllers\\default.py'
p133
sg109
(dp134
sg115
I170
sg116
(dp135
I160
S'    """'
p136
sI161
S'    this is example of API with access control'
p137
sI162
S'    WEB2PY provides Hypermedia API (Collection+JSON) Experimental'
p138
sI163
S'    """'
p139
sI164
S'    from gluon.contrib.hypermedia import Collection'
p140
sI165
S'    rules = {'
p141
sI166
S"        '<tablename>': {'GET':{},'POST':{},'PUT':{},'DELETE':{}},"
p142
sI167
S'        }'
p143
sI168
S'    return Collection(db).process(request,response,rules)'
p144
sI159
S'def api():'
p145
ssg128
S'()'
p146
sg130
S'<module>'
p147
sa(dp148
g107
S'C:\\Users\\mansi\\Downloads\\web2py_src\\web2py\\gluon\\globals.py'
p149
sg109
(dp150
S'self'
p151
S'undefined'
p152
sS'f'
S'<function getplace>'
p153
ssg115
I393
sg116
(dp154
I388
S"        self.flash = ''            # used by the default view layout"
p155
sI389
S'        self.meta = Storage()      # used by web2py_ajax.html'
p156
sI390
S'        self.menu = []             # used by the default view layout'
p157
sI391
S'        self.files = []            # used by web2py_ajax.html'
p158
sI392
S'        self._vars = None'
p159
sI393
S'        self._caller = lambda f: f()'
p160
sI394
S'        self._view_environment = None'
p161
sI395
S'        self._custom_commit = None'
p162
sI396
S'        self._custom_rollback = None'
p163
sI397
S"        self.generic_patterns = ['*']"
p164
ssg128
S'(f=<function getplace>)'
p165
sg130
S'<lambda>'
p166
sa(dp167
g107
S'C:\\Users\\mansi\\Downloads\\web2py_src\\web2py\\applications\\smartapp\\controllers\\default.py'
p168
sg109
(dp169
S'json.loads'
p170
S'<function loads>'
p171
sS'global json'
p172
S"<module 'gluon.contrib.simplejson' from 'C:\\User...rc\\web2py\\gluon\\contrib\\simplejson\\__init__.pyc'>"
p173
sS'req'
p174
S'<urllib2.Request instance>'
p175
sS'urllib2'
p176
S"<module 'urllib2' from 'C:\\Python27\\lib\\urllib2.pyc'>"
p177
sS'urllib2.urlopen'
p178
S'<function urlopen>'
p179
sS').read'
p180
g152
ssg115
I104
sg116
(dp181
I99
S"     'content-type': 'application/json'"
p182
sI100
S'     }'
p183
sI101
S'    req = urllib2.Request('
p184
sI102
S"        'https://manager.gimbal.com/api/v2/places',"
p185
sI103
S'        args, headers)'
p186
sI104
S'    return  json.loads(urllib2.urlopen(req).read())'
p187
sI105
S''
sI106
S'    r = request.get(url=url,header=headers)'
p188
sI107
S'    print r'
p189
sI108
S''
ssg128
S'()'
p190
sg130
S'getplace'
p191
sa(dp192
g107
S'C:\\Python27\\lib\\urllib2.py'
p193
sg109
(dp194
S'url'
p195
S'<urllib2.Request instance>'
p196
sS'opener'
p197
S'<urllib2.OpenerDirector instance>'
p198
sS'data'
p199
S'None'
p200
sS'timeout'
p201
S'<object object>'
p202
sS'opener.open'
p203
S'<bound method OpenerDirector.open of <urllib2.OpenerDirector instance>>'
p204
ssg115
I154
sg116
(dp205
I149
S'        opener = build_opener(https_handler)'
p206
sI150
S'    elif _opener is None:'
p207
sI151
S'        _opener = opener = build_opener()'
p208
sI152
S'    else:'
p209
sI153
S'        opener = _opener'
p210
sI154
S'    return opener.open(url, data, timeout)'
p211
sI155
S''
sI156
S'def install_opener(opener):'
p212
sI157
S'    global _opener'
p213
sI158
S'    _opener = opener'
p214
ssg128
S'(url=<urllib2.Request instance>, data=None, timeout=<object object>, cafile=None, capath=None, cadefault=False, context=None)'
p215
sg130
S'urlopen'
p216
sa(dp217
g107
S'C:\\Python27\\lib\\urllib2.py'
p218
sg109
(dp219
S'meth'
p220
S'<bound method HTTPErrorProcessor.http_response of <urllib2.HTTPErrorProcessor instance>>'
p221
sS'req'
p222
S'<urllib2.Request instance>'
p223
sS'response'
p224
S'<addinfourl at 152654352 whose fp = <socket._fileobject object>>'
p225
ssg115
I437
sg116
(dp226
I432
S''
sI433
S'        # post-process response'
p227
sI434
S'        meth_name = protocol+"_response"'
p228
sI435
S'        for processor in self.process_response.get(protocol, []):'
p229
sI436
S'            meth = getattr(processor, meth_name)'
p230
sI437
S'            response = meth(req, response)'
p231
sI438
S''
sI439
S'        return response'
p232
sI440
S''
sI441
S'    def _open(self, req, data=None):'
p233
ssg128
S'(self=<urllib2.OpenerDirector instance>, fullurl=<urllib2.Request instance>, data=None, timeout=<object object>)'
p234
sg130
S'open'
p235
sa(dp236
g107
S'C:\\Python27\\lib\\urllib2.py'
p237
sg109
(dp238
S'msg'
p239
S"'Unprocessable Entity'"
p240
sS'code'
p241
S'422'
p242
sS'request'
p243
S'<urllib2.Request instance>'
p244
sS'response'
p245
S'<addinfourl at 152654352 whose fp = <socket._fileobject object>>'
p246
sS'hdrs'
p247
S'<httplib.HTTPMessage instance>'
p248
ssg115
I550
sg116
(dp249
I545
S''
sI546
S'        # According to RFC 2616, "2xx" code indicates that the client\'s'
p250
sI547
S'        # request was successfully received, understood, and accepted.'
p251
sI548
S'        if not (200 <= code < 300):'
p252
sI549
S'            response = self.parent.error('
p253
sI550
S"                'http', request, response, code, msg, hdrs)"
p254
sI551
S''
sI552
S'        return response'
p255
sI553
S''
sI554
S'    https_response = http_response'
p256
ssg128
S'(self=<urllib2.HTTPErrorProcessor instance>, request=<urllib2.Request instance>, response=<addinfourl at 152654352 whose fp = <socket._fileobject object>>)'
p257
sg130
S'http_response'
p258
sa(dp259
g107
S'C:\\Python27\\lib\\urllib2.py'
p260
sg109
(dp261
S'self._call_chain'
p262
S'<bound method OpenerDirector._call_chain of <urllib2.OpenerDirector instance>>'
p263
sS'self'
p264
S'<urllib2.OpenerDirector instance>'
p265
sS'args'
p266
S"({301: [<urllib2.HTTPRedirectHandler instance>], 302: [<urllib2.HTTPRedirectHandler instance>], 303: [<urllib2.HTTPRedirectHandler instance>], 307: [<urllib2.HTTPRedirectHandler instance>], 'default': [<urllib2.HTTPDefaultErrorHandler instance>]}, 'default', 'http_error_default', <urllib2.Request instance>, <addinfourl at 152654352 whose fp = <socket._fileobject object>>, 422, 'Unprocessable Entity', <httplib.HTTPMessage instance>)"
p267
ssg115
I475
sg116
(dp268
I470
S'        if result:'
p269
sI471
S'            return result'
p270
sI472
S''
sI473
S'        if http_err:'
p271
sI474
S"            args = (dict, 'default', 'http_error_default') + orig_args"
p272
sI475
S'            return self._call_chain(*args)'
p273
sI476
S''
sI477
S'# XXX probably also want an abstract factory that knows when it makes'
p274
sI478
S'# sense to skip a superclass in favor of a subclass and when it might'
p275
sI479
S'# make sense to include both'
p276
ssg128
S"(self=<urllib2.OpenerDirector instance>, proto=422, *args=({301: [<urllib2.HTTPRedirectHandler instance>], 302: [<urllib2.HTTPRedirectHandler instance>], 303: [<urllib2.HTTPRedirectHandler instance>], 307: [<urllib2.HTTPRedirectHandler instance>], 'default': [<urllib2.HTTPDefaultErrorHandler instance>]}, 'default', 'http_error_default', <urllib2.Request instance>, <addinfourl at 152654352 whose fp = <socket._fileobject object>>, 422, 'Unprocessable Entity', <httplib.HTTPMessage instance>))"
p277
sg130
S'error'
p278
sa(dp279
g107
S'C:\\Python27\\lib\\urllib2.py'
p280
sg109
(dp281
S'args'
p282
S"(<urllib2.Request instance>, <addinfourl at 152654352 whose fp = <socket._fileobject object>>, 422, 'Unprocessable Entity', <httplib.HTTPMessage instance>)"
p283
sS'result'
p284
g152
sS'func'
p285
S'<bound method HTTPDefaultErrorHandler.http_error...lt of <urllib2.HTTPDefaultErrorHandler instance>>'
p286
ssg115
I409
sg116
(dp287
I404
S'        # could.  Otherwise, they return the response.'
p288
sI405
S'        handlers = chain.get(kind, ())'
p289
sI406
S'        for handler in handlers:'
p290
sI407
S'            func = getattr(handler, meth_name)'
p291
sI408
S''
sI409
S'            result = func(*args)'
p292
sI410
S'            if result is not None:'
p293
sI411
S'                return result'
p294
sI412
S''
sI413
S'    def open(self, fullurl, data=None, timeout=socket._GLOBAL_DEFAULT_TIMEOUT):'
p295
ssg128
S"(self=<urllib2.OpenerDirector instance>, chain={301: [<urllib2.HTTPRedirectHandler instance>], 302: [<urllib2.HTTPRedirectHandler instance>], 303: [<urllib2.HTTPRedirectHandler instance>], 307: [<urllib2.HTTPRedirectHandler instance>], 'default': [<urllib2.HTTPDefaultErrorHandler instance>]}, kind='default', meth_name='http_error_default', *args=(<urllib2.Request instance>, <addinfourl at 152654352 whose fp = <socket._fileobject object>>, 422, 'Unprocessable Entity', <httplib.HTTPMessage instance>))"
p296
sg130
S'_call_chain'
p297
sa(dp298
g107
S'C:\\Python27\\lib\\urllib2.py'
p299
sg109
(dp300
S'fp'
p301
S'<addinfourl at 152654352 whose fp = <socket._fileobject object>>'
p302
sS'code'
p303
S'422'
p304
sS'hdrs'
p305
S'<httplib.HTTPMessage instance>'
p306
sS'req'
p307
S'<urllib2.Request instance>'
p308
sS'req.get_full_url'
p309
S'<bound method Request.get_full_url of <urllib2.Request instance>>'
p310
sS'msg'
p311
S"'Unprocessable Entity'"
p312
sS'global HTTPError'
p313
S"<class 'urllib2.HTTPError'>"
p314
ssg115
I558
sg116
(dp315
I553
S''
sI554
S'    https_response = http_response'
p316
sI555
S''
sI556
S'class HTTPDefaultErrorHandler(BaseHandler):'
p317
sI557
S'    def http_error_default(self, req, fp, code, msg, hdrs):'
p318
sI558
S'        raise HTTPError(req.get_full_url(), code, msg, hdrs, fp)'
p319
sI559
S''
sI560
S'class HTTPRedirectHandler(BaseHandler):'
p320
sI561
S'    # maximum number of redirections to any single URL'
p321
sI562
S'    # this is needed because of the state that cookies introduce'
p322
ssg128
S"(self=<urllib2.HTTPDefaultErrorHandler instance>, req=<urllib2.Request instance>, fp=<addinfourl at 152654352 whose fp = <socket._fileobject object>>, code=422, msg='Unprocessable Entity', hdrs=<httplib.HTTPMessage instance>)"
p323
sg130
S'http_error_default'
p324
sasS'pyver'
p325
S'Python 2.7.9: C:\\Python27\\python.exe (prefix: C:\\Python27)'
p326
sS'session'
p327
g102
(S's\x1a\x00\x00\x00<div><table></table></div>'
tRp328
sS'etype'
p329
S"<class 'urllib2.HTTPError'>"
p330
sS'date'
p331
S'Thu Apr 23 12:12:01 2015'
p332
sS'response'
p333
g102
(S's\x861\x00\x00<div><table><tr><td style="font-weight:bold;vertical-align:top;">body</td><td style="vertical-align:top;">:</td><td><div>&lt;cStringIO.StringO object at 0x098D2680&gt;</div></td></tr><tr><td style="font-weight:bold;vertical-align:top;">cookies</td><td style="vertical-align:top;">:</td><td><div><table><tr><td style="font-weight:bold;vertical-align:top;">session_id_smartapp</td><td style="vertical-align:top;">:</td><td><div>127.0.0.1-75014a6b-8138-47ef-bddf-e6409f54be84<table><tr><td style="font-weight:bold;vertical-align:top;">comment</td><td style="vertical-align:top;">:</td><td><div></div></td></tr><tr><td style="font-weight:bold;vertical-align:top;">domain</td><td style="vertical-align:top;">:</td><td><div></div></td></tr><tr><td style="font-weight:bold;vertical-align:top;">expires</td><td style="vertical-align:top;">:</td><td><div></div></td></tr><tr><td style="font-weight:bold;vertical-align:top;">httponly</td><td style="vertical-align:top;">:</td><td><div></div></td></tr><tr><td style="font-weight:bold;vertical-align:top;">max-age</td><td style="vertical-align:top;">:</td><td><div></div></td></tr><tr><td style="font-weight:bold;vertical-align:top;">path</td><td style="vertical-align:top;">:</td><td><div>/</div></td></tr><tr><td style="font-weight:bold;vertical-align:top;">secure</td><td style="vertical-align:top;">:</td><td><div></div></td></tr><tr><td style="font-weight:bold;vertical-align:top;">version</td><td style="vertical-align:top;">:</td><td><div></div></td></tr></table></div></td></tr></table></div></td></tr><tr><td style="font-weight:bold;vertical-align:top;">delimiters</td><td style="vertical-align:top;">:</td><td><div><table><tr><td><div>{{</div></td></tr><tr><td><div>}}</div></td></tr></table></div></td></tr><tr><td style="font-weight:bold;vertical-align:top;">files</td><td style="vertical-align:top;">:</td><td><div><table></table></div></td></tr><tr><td style="font-weight:bold;vertical-align:top;">flash</td><td style="vertical-align:top;">:</td><td><div></div></td></tr><tr><td style="font-weight:bold;vertical-align:top;">form_label_separator</td><td style="vertical-align:top;">:</td><td><div>: </div></td></tr><tr><td style="font-weight:bold;vertical-align:top;">formstyle</td><td style="vertical-align:top;">:</td><td><div>table3cols</div></td></tr><tr><td style="font-weight:bold;vertical-align:top;">generic_patterns</td><td style="vertical-align:top;">:</td><td><div><table><tr><td><div>*</div></td></tr></table></div></td></tr><tr><td style="font-weight:bold;vertical-align:top;">google_analytics_id</td><td style="vertical-align:top;">:</td><td><div>None</div></td></tr><tr><td style="font-weight:bold;vertical-align:top;">headers</td><td style="vertical-align:top;">:</td><td><div><table><tr><td style="font-weight:bold;vertical-align:top;">X-Powered-By</td><td style="vertical-align:top;">:</td><td><div>web2py</div></td></tr></table></div></td></tr><tr><td style="font-weight:bold;vertical-align:top;">logo</td><td style="vertical-align:top;">:</td><td><div><a class="brand" href="http://www.web2py.com/"><b>web<span>2</span>py</b>&trade;&nbsp;</a></div></td></tr><tr><td style="font-weight:bold;vertical-align:top;">menu</td><td style="vertical-align:top;">:</td><td><div><table><tr><td><div><table><tr><td><div>Home</div></td></tr><tr><td><div>False</div></td></tr><tr><td><div>/smartapp/default/index</div></td></tr><tr><td><div><table></table></div></td></tr></table></div></td></tr><tr><td><div><table><tr><td><div><span class="highlighted">web2py</span></div></td></tr><tr><td><div>False</div></td></tr><tr><td><div>http://web2py.com</div></td></tr><tr><td><div><table><tr><td><div><table><tr><td><div>My Sites</div></td></tr><tr><td><div>False</div></td></tr><tr><td><div>/admin/default/site</div></td></tr></table></div></td></tr><tr><td><div><table><tr><td><div>This App</div></td></tr><tr><td><div>False</div></td></tr><tr><td><div>/admin/default/design/smartapp</div></td></tr><tr><td><div>[(&lt;lazyT &#x27;Controller&#x27;&gt;, False, &#x27;/admin/default/edit/smartapp/controllers/default.py&#x27;), (&lt;lazyT &#x27;View&#x27;&gt;, False, &#x27;/admin/default/edit/smartapp/views/default/getplace.html&#x27;), (&lt;lazyT &#x27;Layout&#x27;&gt;, False, &#x27;/admin/default/edit/smartapp/views/layout.html&#x27;), (&lt;lazyT &#x27;Stylesheet&#x27;&gt;, False, &#x27;/admin/default/edit/smartapp/static/css/web2py.css&#x27;), (&lt;lazyT &#x27;DB Model&#x27;&gt;, False, &#x27;/admin/default/edit/smartapp/models/db.py&#x27;), (&lt;lazyT &#x27;Menu Model&#x27;&gt;, False, &#x27;/admin/default/edit/smartapp/models/menu.py&#x27;), (&lt;lazyT &#x27;Database&#x27;&gt;, False, &#x27;/smartapp/appadmin/index&#x27;), (&lt;lazyT &#x27;Errors&#x27;&gt;, False, &#x27;/admin/default/errors/smartapp&#x27;), (&lt;lazyT &#x27;About&#x27;&gt;, False, &#x27;/admin/default/about/smartapp&#x27;)]</div></td></tr></table></div></td></tr><tr><td><div><table><tr><td><div>web2py.com</div></td></tr><tr><td><div>False</div></td></tr><tr><td><div>http://www.web2py.com</div></td></tr><tr><td><div>[(&lt;lazyT &#x27;Download&#x27;&gt;, False, &#x27;http://www.web2py.com/examples/default/download&#x27;), (&lt;lazyT &#x27;Support&#x27;&gt;, False, &#x27;http://www.web2py.com/examples/default/support&#x27;), (&lt;lazyT &#x27;Demo&#x27;&gt;, False, &#x27;http://web2py.com/demo_admin&#x27;), (&lt;lazyT &#x27;Quick Examples&#x27;&gt;, False, &#x27;http://web2py.com/examples/default/examples&#x27;), (&lt;lazyT &#x27;FAQ&#x27;&gt;, False, &#x27;http://web2py.com/AlterEgo&#x27;), (&lt;lazyT &#x27;Videos&#x27;&gt;, False, &#x27;http://www.web2py.com/examples/default/videos/&#x27;), (&lt;lazyT &#x27;Free Applications&#x27;&gt;, False, &#x27;http://web2py.com/appliances&#x27;), (&lt;lazyT &#x27;Plugins&#x27;&gt;, False, &#x27;http://web2py.com/plugins&#x27;), (&lt;lazyT &#x27;Layouts&#x27;&gt;, False, &#x27;http://web2py.com/layouts&#x27;), (&lt;lazyT &#x27;Recipes&#x27;&gt;, False, &#x27;http://web2pyslices.com/&#x27;), (&lt;lazyT &#x27;Semantic&#x27;&gt;, False, &#x27;http://web2py.com/semantic&#x27;)]</div></td></tr></table></div></td></tr><tr><td><div><table><tr><td><div>Documentation</div></td></tr><tr><td><div>False</div></td></tr><tr><td><div>http://www.web2py.com/book</div></td></tr><tr><td><div>[(&lt;lazyT &#x27;Preface&#x27;&gt;, False, &#x27;http://www.web2py.com/book/default/chapter/00&#x27;), (&lt;lazyT &#x27;Introduction&#x27;&gt;, False, &#x27;http://www.web2py.com/book/default/chapter/01&#x27;), (&lt;lazyT &#x27;Python&#x27;&gt;, False, &#x27;http://www.web2py.com/book/default/chapter/02&#x27;), (&lt;lazyT &#x27;Overview&#x27;&gt;, False, &#x27;http://www.web2py.com/book/default/chapter/03&#x27;), (&lt;lazyT &#x27;The Core&#x27;&gt;, False, &#x27;http://www.web2py.com/book/default/chapter/04&#x27;), (&lt;lazyT &#x27;The Views&#x27;&gt;, False, &#x27;http://www.web2py.com/book/default/chapter/05&#x27;), (&lt;lazyT &#x27;Database&#x27;&gt;, False, &#x27;http://www.web2py.com/book/default/chapter/06&#x27;), (&lt;lazyT &#x27;Forms and Validators&#x27;&gt;, False, &#x27;http://www.web2py.com/book/default/chapter/07&#x27;), (&lt;lazyT &#x27;Email and SMS&#x27;&gt;, False, &#x27;http://www.web2py.com/book/default/chapter/08&#x27;), (&lt;lazyT &#x27;Access Control&#x27;&gt;, False, &#x27;http://www.web2py.com/book/default/chapter/09&#x27;), (&lt;lazyT &#x27;Services&#x27;&gt;, False, &#x27;http://www.web2py.com/book/default/chapter/10&#x27;), (&lt;lazyT &#x27;Ajax Recipes&#x27;&gt;, False, &#x27;http://www.web2py.com/book/default/chapter/11&#x27;), (&lt;lazyT &#x27;Components and Plugins&#x27;&gt;, False, &#x27;http://www.web2py.com/book/default/chapter/12&#x27;), (&lt;lazyT &#x27;Deployment Recipes&#x27;&gt;, False, &#x27;http://www.web2py.com/book/default/chapter/13&#x27;), (&lt;lazyT &#x27;Other Recipes&#x27;&gt;, False, &#x27;http://www.web2py.com/book/default/chapter/14&#x27;), (&lt;lazyT &#x27;Buy this book&#x27;&gt;, False, &#x27;http://stores.lulu.com/web2py&#x27;)]</div></td></tr></table></div></td></tr><tr><td><div><table><tr><td><div>Community</div></td></tr><tr><td><div>False</div></td></tr><tr><td><div>None</div></td></tr><tr><td><div>[(&lt;lazyT &#x27;Groups&#x27;&gt;, False, &#x27;http://www.web2py.com/examples/default/usergroups&#x27;), (&lt;lazyT &#x27;Twitter&#x27;&gt;, False, &#x27;http://twitter.com/web2py&#x27;), (&lt;lazyT &#x27;Live Chat&#x27;&gt;, False, &#x27;http://webchat.freenode.net/?channels=web2py&#x27;)]</div></td></tr></table></div></td></tr><tr><td><div><table><tr><td><div>Plugins</div></td></tr><tr><td><div>False</div></td></tr><tr><td><div>None</div></td></tr><tr><td><div>[(&#x27;plugin_wiki&#x27;, False, &#x27;http://web2py.com/examples/default/download&#x27;), (&lt;lazyT &#x27;Other Plugins&#x27;&gt;, False, &#x27;http://web2py.com/plugins&#x27;), (&lt;lazyT &#x27;Layout Plugins&#x27;&gt;, False, &#x27;http://web2py.com/layouts&#x27;)]</div></td></tr></table></div></td></tr></table></div></td></tr></table></div></td></tr></table></div></td></tr><tr><td style="font-weight:bold;vertical-align:top;">meta</td><td style="vertical-align:top;">:</td><td><div><table><tr><td style="font-weight:bold;vertical-align:top;">author</td><td style="vertical-align:top;">:</td><td><div>Your Name &lt;you@example.com&gt;</div></td></tr><tr><td style="font-weight:bold;vertical-align:top;">generator</td><td style="vertical-align:top;">:</td><td><div>Web2py Web Framework</div></td></tr><tr><td style="font-weight:bold;vertical-align:top;">keywords</td><td style="vertical-align:top;">:</td><td><div>web2py, python, framework</div></td></tr></table></div></td></tr><tr><td style="font-weight:bold;vertical-align:top;">models_to_run</td><td style="vertical-align:top;">:</td><td><div><table><tr><td><div>^\\w+\\.py$</div></td></tr><tr><td><div>^default/\\w+\\.py$</div></td></tr><tr><td><div>^default/getplace/\\w+\\.py$</div></td></tr></table></div></td></tr><tr><td style="font-weight:bold;vertical-align:top;">postprocessing</td><td style="vertical-align:top;">:</td><td><div><table></table></div></td></tr><tr><td style="font-weight:bold;vertical-align:top;">session_client</td><td style="vertical-align:top;">:</td><td><div>127.0.0.1</div></td></tr><tr><td style="font-weight:bold;vertical-align:top;">session_cookie_compression_level</td><td style="vertical-align:top;">:</td><td><div>None</div></td></tr><tr><td style="font-weight:bold;vertical-align:top;">session_cookie_expires</td><td style="vertical-align:top;">:</td><td><div>None</div></td></tr><tr><td style="font-weight:bold;vertical-align:top;">session_cookie_key</td><td style="vertical-align:top;">:</td><td><div>None</div></td></tr><tr><td style="font-weight:bold;vertical-align:top;">session_data_name</td><td style="vertical-align:top;">:</td><td><div>session_data_smartapp</div></td></tr><tr><td style="font-weight:bold;vertical-align:top;">session_file</td><td style="vertical-align:top;">:</td><td><div>None</div></td></tr><tr><td style="font-weight:bold;vertical-align:top;">session_filename</td><td style="vertical-align:top;">:</td><td><div>C:\\Users\\mansi\\Downloads\\web2py_src\\web2py\\applications\\smartapp\\sessions\\127.0.0.1-75014a6b-8138-47ef-bddf-e6409f54be84</div></td></tr><tr><td style="font-weight:bold;vertical-align:top;">session_hash</td><td style="vertical-align:top;">:</td><td><div>c0762cbf4baf7f9af97c051e7fcb8083</div></td></tr><tr><td style="font-weight:bold;vertical-align:top;">session_id</td><td style="vertical-align:top;">:</td><td><div>127.0.0.1-75014a6b-8138-47ef-bddf-e6409f54be84</div></td></tr><tr><td style="font-weight:bold;vertical-align:top;">session_id_name</td><td style="vertical-align:top;">:</td><td><div>session_id_smartapp</div></td></tr><tr><td style="font-weight:bold;vertical-align:top;">session_masterapp</td><td style="vertical-align:top;">:</td><td><div>smartapp</div></td></tr><tr><td style="font-weight:bold;vertical-align:top;">session_new</td><td style="vertical-align:top;">:</td><td><div>True</div></td></tr><tr><td style="font-weight:bold;vertical-align:top;">session_storage_type</td><td style="vertical-align:top;">:</td><td><div>file</div></td></tr><tr><td style="font-weight:bold;vertical-align:top;">status</td><td style="vertical-align:top;">:</td><td><div>200</div></td></tr><tr><td style="font-weight:bold;vertical-align:top;">subtitle</td><td style="vertical-align:top;">:</td><td><div></div></td></tr><tr><td style="font-weight:bold;vertical-align:top;">title</td><td style="vertical-align:top;">:</td><td><div>Smartapp</div></td></tr><tr><td style="font-weight:bold;vertical-align:top;">view</td><td style="vertical-align:top;">:</td><td><div>default/getplace.html</div></td></tr></table></div>'
tRp334
sS'locals'
p335
(dp336
g59
S'<addinfourl at 152654352 whose fp = <socket._fileobject object>>'
p337
sg6
S'422'
p338
sg61
S'<httplib.HTTPMessage instance>'
p339
sS'self'
p340
S'<urllib2.HTTPDefaultErrorHandler instance>'
p341
sS'req'
p342
S'<urllib2.Request instance>'
p343
sg55
S"'Unprocessable Entity'"
p344
sssS'traceback'
p345
S'Traceback (most recent call last):\n  File "C:\\Users\\mansi\\Downloads\\web2py_src\\web2py\\gluon\\restricted.py", line 224, in restricted\n    exec ccode in environment\n  File "C:\\Users\\mansi\\Downloads\\web2py_src\\web2py\\applications\\smartapp\\controllers/default.py", line 170, in <module>\n  File "C:\\Users\\mansi\\Downloads\\web2py_src\\web2py\\gluon\\globals.py", line 393, in <lambda>\n    self._caller = lambda f: f()\n  File "C:\\Users\\mansi\\Downloads\\web2py_src\\web2py\\applications\\smartapp\\controllers/default.py", line 104, in getplace\n    return  json.loads(urllib2.urlopen(req).read())\n  File "C:\\Python27\\lib\\urllib2.py", line 154, in urlopen\n    return opener.open(url, data, timeout)\n  File "C:\\Python27\\lib\\urllib2.py", line 437, in open\n    response = meth(req, response)\n  File "C:\\Python27\\lib\\urllib2.py", line 550, in http_response\n    \'http\', request, response, code, msg, hdrs)\n  File "C:\\Python27\\lib\\urllib2.py", line 475, in error\n    return self._call_chain(*args)\n  File "C:\\Python27\\lib\\urllib2.py", line 409, in _call_chain\n    result = func(*args)\n  File "C:\\Python27\\lib\\urllib2.py", line 558, in http_error_default\n    raise HTTPError(req.get_full_url(), code, msg, hdrs, fp)\nHTTPError: HTTP Error 422: Unprocessable Entity\n'
p346
s.