(dp1
S'output'
p2
S"<class 'urllib2.HTTPError'> HTTP Error 422: Unprocessable Entity"
p3
sS'layer'
p4
S'C:\\Users\\mansi\\Downloads\\web2py_src\\web2py\\applications\\smartapp\\controllers/default.py'
p5
sS'code'
p6
S'# -*- coding: utf-8 -*-\n# this file is released under public domain and you can use without limitations\n\n#########################################################################\n## This is a sample controller\n## - index is the default action of any application\n## - user is required for authentication and authorization\n## - download is for downloading files uploaded in the db (does streaming)\n## - api is an example of Hypermedia API support and access control\n#########################################################################\nimport gluon.contrib.simplejson as json\n\ndef register():\n\n    uemail=request.vars.uemail\n    password=request.vars.password\n    phone=request.vars.phone\n    address=request.vars.address\n    zipcode=request.vars.zipcode\n    code =412\n    message="error"\n    if uemail:\n        if password :\n            if phone :\n                if address :\n                    if zipcode :\n                        user_id=db.users.insert(uemail=uemail,password=password,phone=phone,address=address,zipcode=zipcode)\n                        if user_id:\n                                 message="success"\n                                 code=200\n\n    response.headers[\'Content-Type\']=\'application/json\'\n\n    response.status=int(code)\n    return json.dumps(dict(message=message))\n\ndef login():\n    import cgi\n    response.flash="Welcome"\n    id=request.vars.uemail\n    pwd=request.vars.password\n    rows=db(db.users.uemail==id).select(db.users.password)\n\n    if rows :\n        message="invalid username"\n        code=401\n        if(str(rows[0].password)==pwd) :\n            message="success"\n            code=200\n        else :\n            message="invalid  password"\n            code=401\n\n    else :\n       message="invalid username "\n       code=401\n\n    response.headers[\'Content-Type\']=\'application/json\'\n    response.status=int(code)\n    return json.dumps(dict(message=message))\n\n\ndef authenticate(uemail, password):\n\n    users= db((db.users.uemail== uemail)&(db.users.password==password)).select()\n    if users:\n        return True\n    else:\n        return False\n\ndef getuserrole(uemail):\n    \n  users= db((db.users.uemail== uemail)).select(db.users.role)\n  if users:\n        return users[0].role\n  \n\ndef addplace():\n    \n    uemail=request.vars.uemail\n    password=request.vars.password\n\n\n    place_desc=request.vars.place_desc\n    place_name=request.vars.place_name\n    place_addr=request.vars.place_addr\n    place_lat=""\n    place_long=""\n\n    valid_usr=authenticate(uemail,password)\n    if valid_usr:\n        usr_role=getuserrole(uemail)\n    \n        if(usr_role=="admin"):\n\n        #insert into gimbal server and get place-id , place_lat, place_long\n          \n\n            import urllib, urllib2, base64\n\n            data={"name":place_name}\n            data_json = json.dumps(data)\n            headers = {\n             \'Authorization\': \'Token token=f50ccc1aab3314434ae32dada87312cb\',\n             \'Content-Type\': \'application/json\'\n             }\n            req = urllib2.Request(\n            \'https://manager.gimbal.com/api/v2/places\',data_json, headers)\n            res=json.load(urllib2.urlopen(req))\n            place_id=res["id"]\n\n            #insert into datastore\n\n            pl_id=db.places.insert(place_id=place_id,place_desc=place_desc,place_name=place_name,place_addr=place_addr,place_lat=place_lat,\n                              place_long=place_long)\n            \n            if(pl_id) :\n                code=200\n                \n                message="success"\n                return json.dumps(dict(message=message))\n            else :\n                code=412\n         \n                message="error"\n              \n         \n        else:\n          code=401\n          message="user not authorized"\n\n    else:\n            code=412\n            message="User not Authenticated"\n\n    response.headers[\'Content-Type\']=\'application/json\'\n    response.status=int(code)\n    return json.dumps(dict(message=message))\n\ndef getplace():\n\n    # From Directly Gimbal\n    import urllib, urllib2, base64\n    \n    uemail=request.vars.uemail\n    password=request.vars.password\n\n    valid_usr=authenticate(uemail,password)\n    if valid_usr:\n\n        headers = {\n         \'Authorization\': \'Token token=f50ccc1aab3314434ae32dada87312cb\',\n         \'Content-Type\': \'application/json\'\n         }\n        req = urllib2.Request(\n        \'https://manager.gimbal.com/api/v2/places\',\n        None, headers)\n\n        code=200\n        response.headers[\'Content-Type\']=\'application/json\'\n        response.status=int(code)\n        return urllib2.urlopen(req).read()\n    \n    else:\n        code=412\n        response.headers[\'Content-Type\']=\'application/json\'\n        response.status=int(code)\n        return json.dumps(dict(message="error"))\n        \n\ndef getevents():\n\n    uemail=request.vars.uemail\n    password=request.vars.password\n    place_id=request.vars.place_id\n\n    valid_usr=authenticate(uemail,password)\n    if valid_usr:\n      #From Datastore\n        rows = db(db.events.ev_place_id==place_id).select()\n        code=200\n        response.headers[\'Content-Type\']=\'application/json\'\n        response.status=int(code)\n\n        return json.dumps([{\'event_id\':r.event_id,\'event_title\':r.event_title,\'event_desc\':r.event_desc,\'ev_place_lat\':r.ev_place_lat,\'ev_place_long\':r.ev_place_long,\'event_addr\':r.event_addr,\'icon_img_id\':r.icon_image_id,\'ev_place_id\':r.ev_place_id,\'event_timing\':r.event_timing,\'ev_img_url\':getimage(r.icon_image_id)} for r in rows])\n    else :\n        code=412\n        response.headers[\'Content-Type\']=\'application/json\'\n        response.status=int(code)\n        return json.dumps(dict(message=\'error\'))\n\n\n\ndef getplaces():\n\n    uemail=request.vars.uemail\n    password=request.vars.password\n\n    valid_usr=authenticate(uemail,password)\n    if valid_usr:\n      #From Datastore\n        rows = db(db.places.id>0).select()\n        code=200\n        response.headers[\'Content-Type\']=\'application/json\'\n        response.status=int(code)\n\n        return json.dumps([{\'id\':r.place_id,\'id_p\':r.id,\'name\':r.place_name,\'place_desc\':r.place_desc,\'place_lat\':r.place_lat,\'place_long\':r.place_long,\'place_addr\':r.place_addr,\'pl_img_id\':r.icon_image_id,\'pl_img_url\':getimage(r.icon_image_id)} for r in rows])\n    else :\n        code=412\n        response.headers[\'Content-Type\']=\'application/json\'\n        response.status=int(code)\n        return json.dumps(dict(message=\'error\'))\n\ndef addbeacon():\n\n    uemail=request.vars.uemail\n    password=request.vars.password\n\n\n    beacon_name=request.vars.beacon_name\n    b_factory_id=request.vars.b_factory_id\n    beacon_lat=""\n    beacon_long=""\n    beacon_status="Active"\n\n    valid_usr=authenticate(uemail,password)\n    if valid_usr:\n        usr_role=getuserrole(uemail)\n    \n        if(usr_role=="admin"):\n\n        #insert into gimbal server and get place-id , place_lat, place_long\n          \n\n            import urllib, urllib2, base64\n\n            data={"name":beacon_name,"factory_id":b_factory_id}\n            data_json = json.dumps(data)\n            headers = {\n             \'Authorization\': \'Token token=f50ccc1aab3314434ae32dada87312cb\',\n             \'Content-Type\': \'application/json\'\n             }\n            req = urllib2.Request(\n            \'https://manager.gimbal.com/api/beacons\',data_json, headers)\n            res=json.load(urllib2.urlopen(req))\n            beacon_id=res["id"]\n            b_battery_lvl=res["battery_level"]\n            #insert into datastore\n\n            b_id=db.beacons.insert(beacon_id=beacon_id,beacon_name=beacon_name,b_factory_id=b_factory_id,beacon_lat=beacon_lat,beacon_long=beacon_long,beacon_status=beacon_status,b_battery_lvl=b_battery_lvl)\n\n\n            if(b_id) :\n\n                message="success"\n                return json.dumps(dict(message=message))\n            else :\n                code=412\n\n                message="error"\n\n        else:\n          code=401\n          message="user not authorized"\n\n    else:\n            code=412\n            message="User not Authenticated"\n\n    response.headers[\'Content-Type\']=\'application/json\'\n    response.status=int(code)\n    return json.dumps(dict(message=message))\n\n\n    return None\n\ndef activateBeacon():\n\n    uemail=request.vars.uemail\n    password=request.vars.password\n\n\n    b_name=request.vars.b_name\n    b_f_id=request.vars.b_f_id\n\n\n    valid_usr=authenticate(uemail,password)\n    if valid_usr:\n        usr_role=getuserrole(uemail)\n    \n        if(usr_role=="admin"):\n\n        #insert into gimbal server and get place-id , place_lat, place_long\n          \n\n            import urllib, urllib2, base64\n\n            data={"name":b_name,"factory_id":b_f_id}\n            data_json = json.dumps(data)\n            headers = {\n             \'Authorization\': \'Token token=f50ccc1aab3314434ae32dada87312cb\',\n             \'Content-Type\': \'application/json\'\n             }\n            req = urllib2.Request(\n            \'https://manager.gimbal.com/api/beacons\',data_json, headers)\n            res=json.load(urllib2.urlopen(req))\n            \n                       \n            \n            if(res) :\n                code=200\n                \n                \n                message="success"\n                return json.dumps(dict(message=message))\n            else :\n                code=412\n         \n                message="error"\n              \n         \n        else:\n          code=401\n          message="user not authorized"\n\n    else:\n            code=412\n            message="User not Authenticated"\n\n    response.headers[\'Content-Type\']=\'application/json\'\n    response.status=int(code)\n    return json.dumps(dict(message=message))\n\n    return None\n\ndef getallbeacons():\n\n    uemail=request.vars.uemail\n    password=request.vars.password\n\n    valid_usr=authenticate(uemail,password)\n    if valid_usr:\n      #From Datastore\n        rows = db(db.beacons.id>0).select()\n        code=200\n        response.headers[\'Content-Type\']=\'application/json\'\n        response.status=int(code)\n\n        return json.dumps([{\'id\':r.beacon_id,\'b_f_id\':r.b_factory_id,\'name\':r.beacon_name,\'beacon_desc\':r.beacon_desc,\'beacon_lat\':r.beacon_lat,\'beacon_long\':r.beacon_long,\'beacon_status\':r.beacon_status,\'b_place_id\':r.b_place_id,\'b_battery_lvl\':r.b_battery_lvl }for r in rows])\n    else :\n        code=412\n        response.headers[\'Content-Type\']=\'application/json\'\n        response.status=int(code)\n        return json.dumps(dict(message=\'error\'))\n\n    return None\n\ndef deActivateBeacon():\n    \n    uemail=request.vars.uemail\n    password=request.vars.password\n    b_f_id=request.vars.b_f_id\n  \n\n    valid_usr=authenticate(uemail,password)\n    if valid_usr:\n        usr_role=getuserrole(uemail)\n    \n        if(usr_role=="admin"):\n\n\n            import urllib, urllib2, base64,httplib\n\n\n            headers = {\n             \'Authorization\': \'Token token=f50ccc1aab3314434ae32dada87312cb\',\n             \'Content-Type\': \'application/json\'\n             }\n            opener = urllib2.build_opener(urllib2.HTTPHandler)\n            url="https://manager.gimbal.com/api/beacons/"+b_f_id\n            req = urllib2.Request(\n            url,None, headers)\n            req.get_method =lambda: \'DELETE\'\n            res=opener.open(req)\n\n\n            if(res) :\n\n                rows =db (db.beacons.b_factory_id==b_f_id).select().first()\n                for row in rows:\n                 row.update_record(beacon_status=\'DeActive\')\n                if rows:\n                 code=200\n                 message="success"\n                 return json.dumps(dict(message=message))\n            else :\n                code=412\n         \n                message="error"\n              \n         \n        else:\n          code=401\n          message="user not authorized"\n\n    else:\n            code=412\n            message="User not Authenticated"\n\n    response.headers[\'Content-Type\']=\'application/json\'\n    response.status=int(code)\n    return json.dumps(dict(message=message))\n\n    return None\n\ndef updateBeacon():\n    \n    uemail=request.vars.uemail\n    password=request.vars.password\n    b_f_id=request.vars.b_f_id\n    b_name=request.vars.b_name\n\n    valid_usr=authenticate(uemail,password)\n    if valid_usr:\n        usr_role=getuserrole(uemail)\n    \n        if(usr_role=="admin"):\n\n        #insert into gimbal server and get place-id , place_lat, place_long\n          \n\n            import urllib, urllib2, base64,httplib\n\n            data={"name":b_name}\n            data_json = json.dumps(data)\n            headers = {\n             \'Authorization\': \'Token token=f50ccc1aab3314434ae32dada87312cb\',\n             \'Content-Type\': \'application/json\'\n             }\n            opener = urllib2.build_opener(urllib2.HTTPHandler)\n            url="https://manager.gimbal.com/api/beacons/"+b_f_id\n            req = urllib2.Request(\n            url,data_json, headers)\n            req.get_method =lambda: \'PUT\'\n            res=opener.open(req)\n\n           \n            \n            if(res) :\n                code=200\n                rows = db(db.beacons.b_factory_id==b_f_id).select()\n                message="success"\n                return json.dumps(dict(message=message))\n            else :\n                code=412\n         \n                message="error"\n              \n         \n        else:\n          code=401\n          message="user not authorized"\n\n    else:\n            code=412\n            message="User not Authenticated"\n\n    response.headers[\'Content-Type\']=\'application/json\'\n    response.status=int(code)\n    return json.dumps(dict(message=message))\n\n    return None\n\ndef getimage(img_id):\n    imgid=  img_id\n    imagename= db((db.image.id== imgid)).select(db.image.picture)\n    imagename[0].picture\n    url=imagename[0].picture\n    return url\n\n\n\n\ndef index():\n    """\n    example action using the internationalization operator T and flash\n    rendered by views/default/index.html or views/generic.html\n\n    if you need a simple wiki simply replace the two lines below with:\n    return auth.wiki()\n    """\n    response.flash = T("Welcome to web2py!")\n    return dict(message=T(\'Hello World\'))\n\n\ndef user():\n    """\n    exposes:\n    http://..../[app]/default/user/login\n    http://..../[app]/default/user/logout\n    http://..../[app]/default/user/register\n    http://..../[app]/default/user/profile\n    http://..../[app]/default/user/retrieve_password\n    http://..../[app]/default/user/change_password\n    http://..../[app]/default/user/manage_users (requires membership in\n    use @auth.requires_login()\n        @auth.requires_membership(\'group name\')\n        @auth.requires_permission(\'read\',\'table name\',record_id)\n    to decorate functions that need access control\n    """\n    return dict(form=auth())\n\n\n@cache.action()\ndef download():\n    """\n    allows downloading of uploaded files\n    http://..../[app]/default/download/[filename]\n    """\n    return response.download(request, db)\n\n\ndef call():\n    """\n    exposes services. for example:\n    http://..../[app]/default/call/jsonrpc\n    decorate with @services.jsonrpc the functions to expose\n    supports xml, json, xmlrpc, jsonrpc, amfrpc, rss, csv\n    """\n    return service()\n\n\n@auth.requires_login() \ndef api():\n    """\n    this is example of API with access control\n    WEB2PY provides Hypermedia API (Collection+JSON) Experimental\n    """\n    from gluon.contrib.hypermedia import Collection\n    rules = {\n        \'<tablename>\': {\'GET\':{},\'POST\':{},\'PUT\':{},\'DELETE\':{}},\n        }\n    return Collection(db).process(request,response,rules)\n\nresponse._vars=response._caller(activateBeacon)\n'
p7
sS'snapshot'
p8
(dp9
S'exception'
p10
(dp11
S'__module__'
p12
S"'urllib2'"
p13
sg6
S'422'
p14
sS'__getslice__'
p15
S"<method-wrapper '__getslice__' of HTTPError object>"
p16
sS'__str__'
p17
S'<bound method HTTPError.__str__ of HTTPError()>'
p18
sS'__reduce__'
p19
S'<built-in method __reduce__ of HTTPError object>'
p20
sS'strerror'
p21
S'None'
p22
sS'__dict__'
p23
S"{'__iter__': <bound method _fileobject.__iter__ of <socket._fileobject object>>, 'code': 422, 'fileno': <bound method _fileobject.fileno of <socket._fileobject object>>, 'fp': <addinfourl at 148625768 whose fp = <socket._fileobject object>>, 'hdrs': <httplib.HTTPMessage instance>, 'headers': <httplib.HTTPMessage instance>, 'msg': 'Unprocessable Entity', 'next': <bound method _fileobject.next of <socket._fileobject object>>, 'read': <bound method _fileobject.read of <socket._fileobject object>>, 'readline': <bound method _fileobject.readline of <socket._fileobject object>>, ...}"
p24
sS'close'
p25
S'<bound method HTTPError.close of HTTPError()>'
p26
sS'__sizeof__'
p27
S'<built-in method __sizeof__ of HTTPError object>'
p28
sS'next'
p29
S'<bound method _fileobject.next of <socket._fileobject object>>'
p30
sS'__weakref__'
p31
S'None'
p32
sS'__init__'
p33
S'<bound method HTTPError.__init__ of HTTPError()>'
p34
sS'__setattr__'
p35
S"<method-wrapper '__setattr__' of HTTPError object>"
p36
sS'__reduce_ex__'
p37
S'<built-in method __reduce_ex__ of HTTPError object>'
p38
sS'__new__'
p39
S'<built-in method __new__ of type object>'
p40
sS'headers'
p41
S'<httplib.HTTPMessage instance>'
p42
sS'errno'
p43
S'None'
p44
sS'readlines'
p45
S'<bound method _fileobject.readlines of <socket._fileobject object>>'
p46
sS'__format__'
p47
S'<built-in method __format__ of HTTPError object>'
p48
sS'__class__'
p49
S"<class 'urllib2.HTTPError'>"
p50
sS'filename'
p51
S"'https://manager.gimbal.com/api/beacons'"
p52
sS'_HTTPError__super_init'
p53
S'<bound method HTTPError.__init__ of HTTPError()>'
p54
sS'msg'
p55
S"'Unprocessable Entity'"
p56
sS'__doc__'
p57
S"'Raised when HTTP error occurs, but also acts like non-error return'"
p58
sS'fp'
p59
S'<addinfourl at 148625768 whose fp = <socket._fileobject object>>'
p60
sS'hdrs'
p61
S'<httplib.HTTPMessage instance>'
p62
sS'__getitem__'
p63
S"<method-wrapper '__getitem__' of HTTPError object>"
p64
sS'__setstate__'
p65
S'<built-in method __setstate__ of HTTPError object>'
p66
sS'read'
p67
S'<bound method _fileobject.read of <socket._fileobject object>>'
p68
sS'__getattribute__'
p69
S"<method-wrapper '__getattribute__' of HTTPError object>"
p70
sS'args'
p71
S'()'
p72
sS'__iter__'
p73
S'<bound method _fileobject.__iter__ of <socket._fileobject object>>'
p74
sS'__subclasshook__'
p75
S'<built-in method __subclasshook__ of type object>'
p76
sS'readline'
p77
S'<bound method _fileobject.readline of <socket._fileobject object>>'
p78
sS'__unicode__'
p79
S'<built-in method __unicode__ of HTTPError object>'
p80
sS'info'
p81
S'<bound method HTTPError.info of HTTPError()>'
p82
sS'fileno'
p83
S'<bound method _fileobject.fileno of <socket._fileobject object>>'
p84
sS'getcode'
p85
S'<bound method HTTPError.getcode of HTTPError()>'
p86
sS'url'
p87
S"'https://manager.gimbal.com/api/beacons'"
p88
sS'reason'
p89
S"'Unprocessable Entity'"
p90
sS'geturl'
p91
S'<bound method HTTPError.geturl of HTTPError()>'
p92
sS'__delattr__'
p93
S"<method-wrapper '__delattr__' of HTTPError object>"
p94
sS'__repr__'
p95
S"<method-wrapper '__repr__' of HTTPError object>"
p96
sS'__hash__'
p97
S"<method-wrapper '__hash__' of HTTPError object>"
p98
ssS'evalue'
p99
S'HTTP Error 422: Unprocessable Entity'
p100
sS'request'
p101
cgluon.html
XML_unpickle
p102
(S's\x03f\x00\x00<div><table><tr><td style="font-weight:bold;vertical-align:top;">ajax</td><td style="vertical-align:top;">:</td><td><div>False</div></td></tr><tr><td style="font-weight:bold;vertical-align:top;">application</td><td style="vertical-align:top;">:</td><td><div>smartapp</div></td></tr><tr><td style="font-weight:bold;vertical-align:top;">args</td><td style="vertical-align:top;">:</td><td><div><table></table></div></td></tr><tr><td style="font-weight:bold;vertical-align:top;">cid</td><td style="vertical-align:top;">:</td><td><div>None</div></td></tr><tr><td style="font-weight:bold;vertical-align:top;">client</td><td style="vertical-align:top;">:</td><td><div>127.0.0.1</div></td></tr><tr><td style="font-weight:bold;vertical-align:top;">controller</td><td style="vertical-align:top;">:</td><td><div>default</div></td></tr><tr><td style="font-weight:bold;vertical-align:top;">cookies</td><td style="vertical-align:top;">:</td><td><div><table><tr><td style="font-weight:bold;vertical-align:top;">session_id_admin</td><td style="vertical-align:top;">:</td><td><div>127.0.0.1-1f03a160-ff3e-481d-9d92-ad6e3e34045e<table><tr><td style="font-weight:bold;vertical-align:top;">comment</td><td style="vertical-align:top;">:</td><td><div></div></td></tr><tr><td style="font-weight:bold;vertical-align:top;">domain</td><td style="vertical-align:top;">:</td><td><div></div></td></tr><tr><td style="font-weight:bold;vertical-align:top;">expires</td><td style="vertical-align:top;">:</td><td><div></div></td></tr><tr><td style="font-weight:bold;vertical-align:top;">httponly</td><td style="vertical-align:top;">:</td><td><div></div></td></tr><tr><td style="font-weight:bold;vertical-align:top;">max-age</td><td style="vertical-align:top;">:</td><td><div></div></td></tr><tr><td style="font-weight:bold;vertical-align:top;">path</td><td style="vertical-align:top;">:</td><td><div></div></td></tr><tr><td style="font-weight:bold;vertical-align:top;">secure</td><td style="vertical-align:top;">:</td><td><div></div></td></tr><tr><td style="font-weight:bold;vertical-align:top;">version</td><td style="vertical-align:top;">:</td><td><div></div></td></tr></table></div></td></tr><tr><td style="font-weight:bold;vertical-align:top;">session_id_smartapp</td><td style="vertical-align:top;">:</td><td><div>127.0.0.1-71a174d4-dd42-4c92-a212-5ff3f9acb01f<table><tr><td style="font-weight:bold;vertical-align:top;">comment</td><td style="vertical-align:top;">:</td><td><div></div></td></tr><tr><td style="font-weight:bold;vertical-align:top;">domain</td><td style="vertical-align:top;">:</td><td><div></div></td></tr><tr><td style="font-weight:bold;vertical-align:top;">expires</td><td style="vertical-align:top;">:</td><td><div></div></td></tr><tr><td style="font-weight:bold;vertical-align:top;">httponly</td><td style="vertical-align:top;">:</td><td><div></div></td></tr><tr><td style="font-weight:bold;vertical-align:top;">max-age</td><td style="vertical-align:top;">:</td><td><div></div></td></tr><tr><td style="font-weight:bold;vertical-align:top;">path</td><td style="vertical-align:top;">:</td><td><div></div></td></tr><tr><td style="font-weight:bold;vertical-align:top;">secure</td><td style="vertical-align:top;">:</td><td><div></div></td></tr><tr><td style="font-weight:bold;vertical-align:top;">version</td><td style="vertical-align:top;">:</td><td><div></div></td></tr></table></div></td></tr><tr><td style="font-weight:bold;vertical-align:top;">session_id_smartappp</td><td style="vertical-align:top;">:</td><td><div>127.0.0.1-6baa7ae4-ee53-4cc4-81d8-648381209c16<table><tr><td style="font-weight:bold;vertical-align:top;">comment</td><td style="vertical-align:top;">:</td><td><div></div></td></tr><tr><td style="font-weight:bold;vertical-align:top;">domain</td><td style="vertical-align:top;">:</td><td><div></div></td></tr><tr><td style="font-weight:bold;vertical-align:top;">expires</td><td style="vertical-align:top;">:</td><td><div></div></td></tr><tr><td style="font-weight:bold;vertical-align:top;">httponly</td><td style="vertical-align:top;">:</td><td><div></div></td></tr><tr><td style="font-weight:bold;vertical-align:top;">max-age</td><td style="vertical-align:top;">:</td><td><div></div></td></tr><tr><td style="font-weight:bold;vertical-align:top;">path</td><td style="vertical-align:top;">:</td><td><div></div></td></tr><tr><td style="font-weight:bold;vertical-align:top;">secure</td><td style="vertical-align:top;">:</td><td><div></div></td></tr><tr><td style="font-weight:bold;vertical-align:top;">version</td><td style="vertical-align:top;">:</td><td><div></div></td></tr></table></div></td></tr><tr><td style="font-weight:bold;vertical-align:top;">session_id_welcome</td><td style="vertical-align:top;">:</td><td><div>127.0.0.1-1cecaa83-4c1b-4ed1-93dd-2d9f75ba3e26<table><tr><td style="font-weight:bold;vertical-align:top;">comment</td><td style="vertical-align:top;">:</td><td><div></div></td></tr><tr><td style="font-weight:bold;vertical-align:top;">domain</td><td style="vertical-align:top;">:</td><td><div></div></td></tr><tr><td style="font-weight:bold;vertical-align:top;">expires</td><td style="vertical-align:top;">:</td><td><div></div></td></tr><tr><td style="font-weight:bold;vertical-align:top;">httponly</td><td style="vertical-align:top;">:</td><td><div></div></td></tr><tr><td style="font-weight:bold;vertical-align:top;">max-age</td><td style="vertical-align:top;">:</td><td><div></div></td></tr><tr><td style="font-weight:bold;vertical-align:top;">path</td><td style="vertical-align:top;">:</td><td><div></div></td></tr><tr><td style="font-weight:bold;vertical-align:top;">secure</td><td style="vertical-align:top;">:</td><td><div></div></td></tr><tr><td style="font-weight:bold;vertical-align:top;">version</td><td style="vertical-align:top;">:</td><td><div></div></td></tr></table></div></td></tr></table></div></td></tr><tr><td style="font-weight:bold;vertical-align:top;">env</td><td style="vertical-align:top;">:</td><td><div><table><tr><td style="font-weight:bold;vertical-align:top;">HTTP_ACCEPT</td><td style="vertical-align:top;">:</td><td><div>text/html,application/xhtml+xml,application/xml;q=0.9,image/webp,*/*;q=0.8</div></td></tr><tr><td style="font-weight:bold;vertical-align:top;">HTTP_ACCEPT_ENCODING</td><td style="vertical-align:top;">:</td><td><div>gzip, deflate, sdch</div></td></tr><tr><td style="font-weight:bold;vertical-align:top;">HTTP_ACCEPT_LANGUAGE</td><td style="vertical-align:top;">:</td><td><div>en-US,en;q=0.8</div></td></tr><tr><td style="font-weight:bold;vertical-align:top;">HTTP_CONNECTION</td><td style="vertical-align:top;">:</td><td><div>keep-alive</div></td></tr><tr><td style="font-weight:bold;vertical-align:top;">HTTP_COOKIE</td><td style="vertical-align:top;">:</td><td><div>session_id_smartappp=127.0.0.1-6baa7ae4-ee53-4cc4-81d8-648381209c16; session_id_welcome=127.0.0.1-1cecaa83-4c1b-4ed1-93dd-2d9f75ba3e26; session_id_smartapp=127.0.0.1-71a174d4-dd42-4c92-a212-5ff3f9acb01f; session_id_admin=127.0.0.1-1f03a160-ff3e-481d-9d92-ad6e3e34045e</div></td></tr><tr><td style="font-weight:bold;vertical-align:top;">HTTP_HOST</td><td style="vertical-align:top;">:</td><td><div>127.0.0.1:8000</div></td></tr><tr><td style="font-weight:bold;vertical-align:top;">HTTP_USER_AGENT</td><td style="vertical-align:top;">:</td><td><div>Mozilla/5.0 (Windows NT 6.3; WOW64) AppleWebKit/537.36 (KHTML, like Gecko) Chrome/42.0.2311.135 Safari/537.36</div></td></tr><tr><td style="font-weight:bold;vertical-align:top;">PATH_INFO</td><td style="vertical-align:top;">:</td><td><div>/smartapp/default/activateBeacon</div></td></tr><tr><td style="font-weight:bold;vertical-align:top;">QUERY_STRING</td><td style="vertical-align:top;">:</td><td><div>uemail=abc&amp;password=123&amp;b_f_id=C65J-UZ8C5</div></td></tr><tr><td style="font-weight:bold;vertical-align:top;">REMOTE_ADDR</td><td style="vertical-align:top;">:</td><td><div>127.0.0.1</div></td></tr><tr><td style="font-weight:bold;vertical-align:top;">REMOTE_PORT</td><td style="vertical-align:top;">:</td><td><div>53799</div></td></tr><tr><td style="font-weight:bold;vertical-align:top;">REQUEST_METHOD</td><td style="vertical-align:top;">:</td><td><div>GET</div></td></tr><tr><td style="font-weight:bold;vertical-align:top;">SCRIPT_NAME</td><td style="vertical-align:top;">:</td><td><div></div></td></tr><tr><td style="font-weight:bold;vertical-align:top;">SERVER_NAME</td><td style="vertical-align:top;">:</td><td><div>mansi</div></td></tr><tr><td style="font-weight:bold;vertical-align:top;">SERVER_PORT</td><td style="vertical-align:top;">:</td><td><div>8000</div></td></tr><tr><td style="font-weight:bold;vertical-align:top;">SERVER_PROTOCOL</td><td style="vertical-align:top;">:</td><td><div>HTTP/1.1</div></td></tr><tr><td style="font-weight:bold;vertical-align:top;">SERVER_SOFTWARE</td><td style="vertical-align:top;">:</td><td><div>Rocket 1.2.6</div></td></tr><tr><td style="font-weight:bold;vertical-align:top;">app_folders</td><td style="vertical-align:top;">:</td><td><div>set([&#x27;C:\\\\Users\\\\mansi\\\\Downloads\\\\web2py_src\\\\web2py\\\\applications\\\\admin\\\\&#x27;, &#x27;C:\\\\Users\\\\mansi\\\\Downloads\\\\web2py_src\\\\web2py\\\\applications\\\\welcome\\\\&#x27;, &#x27;C:\\\\Users\\\\mansi\\\\Downloads\\\\web2py_src\\\\web2py\\\\applications\\\\smartapp\\\\&#x27;])</div></td></tr><tr><td style="font-weight:bold;vertical-align:top;">applications_parent</td><td style="vertical-align:top;">:</td><td><div>C:\\Users\\mansi\\Downloads\\web2py_src\\web2py</div></td></tr><tr><td style="font-weight:bold;vertical-align:top;">cmd_args</td><td style="vertical-align:top;">:</td><td><div><table></table></div></td></tr><tr><td style="font-weight:bold;vertical-align:top;">cmd_options</td><td style="vertical-align:top;">:</td><td><div>&lt;Values at 0x2ee4328: {&#x27;verbose&#x27;: False, &#x27;ip&#x27;: &#x27;127.0.0.1&#x27;, &#x27;debuglevel&#x27;: 30, &#x27;with_scheduler&#x27;: False, &#x27;ips&#x27;: [&#x27;2001:0:5ef5:79fb:188d:c6b:3f57:fff2&#x27;, &#x27;fe80::202b:cfb2:565e:a5d0%4&#x27;, &#x27;fe80::188d:c6b:3f57:fff2%7&#x27;, &#x27;192.168.0.13&#x27;, &#x27;2601:9:500:4620:202b:cfb2:565e:a5d0&#x27;, &#x27;2601:9:500:4620:e5bd:2d44:e26:2c3f&#x27;, &#x27;2601:9:500:4620:3623:87ff:fec5:9727&#x27;], &#x27;shutdown_timeout&#x27;: 5, &#x27;taskbar&#x27;: False, &#x27;with_coverage&#x27;: False, &#x27;scheduler_groups&#x27;: None, &#x27;port&#x27;: 8000, &#x27;maxthreads&#x27;: None, &#x27;softcron&#x27;: False, &#x27;server_name&#x27;: &#x27;mansi&#x27;, &#x27;bpython&#x27;: False, &#x27;nogui&#x27;: False, &#x27;pid_filename&#x27;: &#x27;httpserver.pid&#x27;, &#x27;extcron&#x27;: False, &#x27;runcron&#x27;: False, &#x27;run_system_tests&#x27;: False, &#x27;test&#x27;: None, &#x27;folder&#x27;: &#x27;C:\\\\Users\\\\mansi\\\\Downloads\\\\web2py_src\\\\web2py&#x27;, &#x27;config&#x27;: &#x27;&#x27;, &#x27;minthreads&#x27;: None, &#x27;shell&#x27;: None, &#x27;run&#x27;: &#x27;&#x27;, &#x27;log_filename&#x27;: &#x27;httpserver.log&#x27;, &#x27;profiler_dir&#x27;: None, &#x27;args&#x27;: [&#x27;&#x27;], &#x27;socket_timeout&#x27;: 5, &#x27;ssl_ca_certificate&#x27;: None, &#x27;scheduler&#x27;: None, &#x27;interfaces&#x27;: None, &#x27;ssl_private_key&#x27;: &#x27;&#x27;, &#x27;gae&#x27;: None, &#x27;password&#x27;: &#x27;&lt;ask&gt;&#x27;, &#x27;request_queue_size&#x27;: 5, &#x27;ssl_certificate&#x27;: &#x27;&#x27;, &#x27;cronjob&#x27;: False, &#x27;numthreads&#x27;: None, &#x27;quiet&#x27;: False, &#x27;import_models&#x27;: False, &#x27;timeout&#x27;: 10, &#x27;plain&#x27;: False, &#x27;nobanner&#x27;: False}&gt;</div></td></tr><tr><td style="font-weight:bold;vertical-align:top;">db_sessions</td><td style="vertical-align:top;">:</td><td><div>set([])</div></td></tr><tr><td style="font-weight:bold;vertical-align:top;">debugging</td><td style="vertical-align:top;">:</td><td><div>True</div></td></tr><tr><td style="font-weight:bold;vertical-align:top;">gluon_parent</td><td style="vertical-align:top;">:</td><td><div>C:\\Users\\mansi\\Downloads\\web2py_src\\web2py</div></td></tr><tr><td style="font-weight:bold;vertical-align:top;">http_accept</td><td style="vertical-align:top;">:</td><td><div>text/html,application/xhtml+xml,application/xml;q=0.9,image/webp,*/*;q=0.8</div></td></tr><tr><td style="font-weight:bold;vertical-align:top;">http_accept_encoding</td><td style="vertical-align:top;">:</td><td><div>gzip, deflate, sdch</div></td></tr><tr><td style="font-weight:bold;vertical-align:top;">http_accept_language</td><td style="vertical-align:top;">:</td><td><div>en-US,en;q=0.8</div></td></tr><tr><td style="font-weight:bold;vertical-align:top;">http_connection</td><td style="vertical-align:top;">:</td><td><div>keep-alive</div></td></tr><tr><td style="font-weight:bold;vertical-align:top;">http_cookie</td><td style="vertical-align:top;">:</td><td><div>session_id_smartappp=127.0.0.1-6baa7ae4-ee53-4cc4-81d8-648381209c16; session_id_welcome=127.0.0.1-1cecaa83-4c1b-4ed1-93dd-2d9f75ba3e26; session_id_smartapp=127.0.0.1-71a174d4-dd42-4c92-a212-5ff3f9acb01f; session_id_admin=127.0.0.1-1f03a160-ff3e-481d-9d92-ad6e3e34045e</div></td></tr><tr><td style="font-weight:bold;vertical-align:top;">http_host</td><td style="vertical-align:top;">:</td><td><div>127.0.0.1:8000</div></td></tr><tr><td style="font-weight:bold;vertical-align:top;">http_user_agent</td><td style="vertical-align:top;">:</td><td><div>Mozilla/5.0 (Windows NT 6.3; WOW64) AppleWebKit/537.36 (KHTML, like Gecko) Chrome/42.0.2311.135 Safari/537.36</div></td></tr><tr><td style="font-weight:bold;vertical-align:top;">is_jython</td><td style="vertical-align:top;">:</td><td><div>False</div></td></tr><tr><td style="font-weight:bold;vertical-align:top;">is_pypy</td><td style="vertical-align:top;">:</td><td><div>False</div></td></tr><tr><td style="font-weight:bold;vertical-align:top;">is_source</td><td style="vertical-align:top;">:</td><td><div>True</div></td></tr><tr><td style="font-weight:bold;vertical-align:top;">local_hosts</td><td style="vertical-align:top;">:</td><td><div><table><tr><td><div>2001:0:5ef5:79fb:188d:c6b:3f57:fff2</div></td></tr><tr><td><div>fe80::202b:cfb2:565e:a5d0%4</div></td></tr><tr><td><div>::ffff:127.0.0.1</div></td></tr><tr><td><div>::1</div></td></tr><tr><td><div>fe80::188d:c6b:3f57:fff2%7</div></td></tr><tr><td><div>127.0.0.1</div></td></tr><tr><td><div>192.168.0.13</div></td></tr><tr><td><div>mansi</div></td></tr><tr><td><div>2601:9:500:4620:202b:cfb2:565e:a5d0</div></td></tr><tr><td><div>2601:9:500:4620:e5bd:2d44:e26:2c3f</div></td></tr><tr><td><div>2601:9:500:4620:3623:87ff:fec5:9727</div></td></tr></table></div></td></tr><tr><td style="font-weight:bold;vertical-align:top;">path_info</td><td style="vertical-align:top;">:</td><td><div>/smartapp/default/activateBeacon</div></td></tr><tr><td style="font-weight:bold;vertical-align:top;">query_string</td><td style="vertical-align:top;">:</td><td><div>uemail=abc&amp;password=123&amp;b_f_id=C65J-UZ8C5</div></td></tr><tr><td style="font-weight:bold;vertical-align:top;">remote_addr</td><td style="vertical-align:top;">:</td><td><div>127.0.0.1</div></td></tr><tr><td style="font-weight:bold;vertical-align:top;">remote_port</td><td style="vertical-align:top;">:</td><td><div>53799</div></td></tr><tr><td style="font-weight:bold;vertical-align:top;">request_method</td><td style="vertical-align:top;">:</td><td><div>GET</div></td></tr><tr><td style="font-weight:bold;vertical-align:top;">request_uri</td><td style="vertical-align:top;">:</td><td><div>/smartapp/default/activateBeacon?uemail=abc&amp;password=123&amp;b_f_id=C65J-UZ8C5</div></td></tr><tr><td style="font-weight:bold;vertical-align:top;">script_name</td><td style="vertical-align:top;">:</td><td><div></div></td></tr><tr><td style="font-weight:bold;vertical-align:top;">server_name</td><td style="vertical-align:top;">:</td><td><div>mansi</div></td></tr><tr><td style="font-weight:bold;vertical-align:top;">server_port</td><td style="vertical-align:top;">:</td><td><div>8000</div></td></tr><tr><td style="font-weight:bold;vertical-align:top;">server_protocol</td><td style="vertical-align:top;">:</td><td><div>HTTP/1.1</div></td></tr><tr><td style="font-weight:bold;vertical-align:top;">server_software</td><td style="vertical-align:top;">:</td><td><div>Rocket 1.2.6</div></td></tr><tr><td style="font-weight:bold;vertical-align:top;">web2py_path</td><td style="vertical-align:top;">:</td><td><div>C:\\Users\\mansi\\Downloads\\web2py_src\\web2py</div></td></tr><tr><td style="font-weight:bold;vertical-align:top;">web2py_version</td><td style="vertical-align:top;">:</td><td><div>2.9.12-stable+timestamp.2015.01.17.06.11.03</div></td></tr><tr><td style="font-weight:bold;vertical-align:top;">wsgi.errors</td><td style="vertical-align:top;">:</td><td><div>&lt;open file &#x27;&lt;stderr&gt;&#x27;, mode &#x27;w&#x27; at 0x01D0D0D0&gt;</div></td></tr><tr><td style="font-weight:bold;vertical-align:top;">wsgi.file_wrapper</td><td style="vertical-align:top;">:</td><td><div>&lt;class wsgiref.util.FileWrapper at 0x01F99180&gt;</div></td></tr><tr><td style="font-weight:bold;vertical-align:top;">wsgi.input</td><td style="vertical-align:top;">:</td><td><div>&lt;socket._fileobject object at 0x09FD2B30&gt;</div></td></tr><tr><td style="font-weight:bold;vertical-align:top;">wsgi.multiprocess</td><td style="vertical-align:top;">:</td><td><div>False</div></td></tr><tr><td style="font-weight:bold;vertical-align:top;">wsgi.multithread</td><td style="vertical-align:top;">:</td><td><div>True</div></td></tr><tr><td style="font-weight:bold;vertical-align:top;">wsgi.run_once</td><td style="vertical-align:top;">:</td><td><div>False</div></td></tr><tr><td style="font-weight:bold;vertical-align:top;">wsgi.url_scheme</td><td style="vertical-align:top;">:</td><td><div>http</div></td></tr><tr><td style="font-weight:bold;vertical-align:top;">wsgi.version</td><td style="vertical-align:top;">:</td><td><div><table><tr><td><div>1</div></td></tr><tr><td><div>0</div></td></tr></table></div></td></tr><tr><td style="font-weight:bold;vertical-align:top;">wsgi_errors</td><td style="vertical-align:top;">:</td><td><div>&lt;open file &#x27;&lt;stderr&gt;&#x27;, mode &#x27;w&#x27; at 0x01D0D0D0&gt;</div></td></tr><tr><td style="font-weight:bold;vertical-align:top;">wsgi_file_wrapper</td><td style="vertical-align:top;">:</td><td><div>&lt;class wsgiref.util.FileWrapper at 0x01F99180&gt;</div></td></tr><tr><td style="font-weight:bold;vertical-align:top;">wsgi_input</td><td style="vertical-align:top;">:</td><td><div>&lt;socket._fileobject object at 0x09FD2B30&gt;</div></td></tr><tr><td style="font-weight:bold;vertical-align:top;">wsgi_multiprocess</td><td style="vertical-align:top;">:</td><td><div>False</div></td></tr><tr><td style="font-weight:bold;vertical-align:top;">wsgi_multithread</td><td style="vertical-align:top;">:</td><td><div>True</div></td></tr><tr><td style="font-weight:bold;vertical-align:top;">wsgi_run_once</td><td style="vertical-align:top;">:</td><td><div>False</div></td></tr><tr><td style="font-weight:bold;vertical-align:top;">wsgi_url_scheme</td><td style="vertical-align:top;">:</td><td><div>http</div></td></tr><tr><td style="font-weight:bold;vertical-align:top;">wsgi_version</td><td style="vertical-align:top;">:</td><td><div><table><tr><td><div>1</div></td></tr><tr><td><div>0</div></td></tr></table></div></td></tr></table></div></td></tr><tr><td style="font-weight:bold;vertical-align:top;">extension</td><td style="vertical-align:top;">:</td><td><div>html</div></td></tr><tr><td style="font-weight:bold;vertical-align:top;">folder</td><td style="vertical-align:top;">:</td><td><div>C:\\Users\\mansi\\Downloads\\web2py_src\\web2py\\applications\\smartapp\\</div></td></tr><tr><td style="font-weight:bold;vertical-align:top;">function</td><td style="vertical-align:top;">:</td><td><div>activateBeacon</div></td></tr><tr><td style="font-weight:bold;vertical-align:top;">global_settings</td><td style="vertical-align:top;">:</td><td><div><table><tr><td style="font-weight:bold;vertical-align:top;">app_folders</td><td style="vertical-align:top;">:</td><td><div>set([&#x27;C:\\\\Users\\\\mansi\\\\Downloads\\\\web2py_src\\\\web2py\\\\applications\\\\admin\\\\&#x27;, &#x27;C:\\\\Users\\\\mansi\\\\Downloads\\\\web2py_src\\\\web2py\\\\applications\\\\welcome\\\\&#x27;, &#x27;C:\\\\Users\\\\mansi\\\\Downloads\\\\web2py_src\\\\web2py\\\\applications\\\\smartapp\\\\&#x27;])</div></td></tr><tr><td style="font-weight:bold;vertical-align:top;">applications_parent</td><td style="vertical-align:top;">:</td><td><div>C:\\Users\\mansi\\Downloads\\web2py_src\\web2py</div></td></tr><tr><td style="font-weight:bold;vertical-align:top;">cmd_args</td><td style="vertical-align:top;">:</td><td><div><table></table></div></td></tr><tr><td style="font-weight:bold;vertical-align:top;">cmd_options</td><td style="vertical-align:top;">:</td><td><div>&lt;Values at 0x2ee4328: {&#x27;verbose&#x27;: False, &#x27;ip&#x27;: &#x27;127.0.0.1&#x27;, &#x27;debuglevel&#x27;: 30, &#x27;with_scheduler&#x27;: False, &#x27;ips&#x27;: [&#x27;2001:0:5ef5:79fb:188d:c6b:3f57:fff2&#x27;, &#x27;fe80::202b:cfb2:565e:a5d0%4&#x27;, &#x27;fe80::188d:c6b:3f57:fff2%7&#x27;, &#x27;192.168.0.13&#x27;, &#x27;2601:9:500:4620:202b:cfb2:565e:a5d0&#x27;, &#x27;2601:9:500:4620:e5bd:2d44:e26:2c3f&#x27;, &#x27;2601:9:500:4620:3623:87ff:fec5:9727&#x27;], &#x27;shutdown_timeout&#x27;: 5, &#x27;taskbar&#x27;: False, &#x27;with_coverage&#x27;: False, &#x27;scheduler_groups&#x27;: None, &#x27;port&#x27;: 8000, &#x27;maxthreads&#x27;: None, &#x27;softcron&#x27;: False, &#x27;server_name&#x27;: &#x27;mansi&#x27;, &#x27;bpython&#x27;: False, &#x27;nogui&#x27;: False, &#x27;pid_filename&#x27;: &#x27;httpserver.pid&#x27;, &#x27;extcron&#x27;: False, &#x27;runcron&#x27;: False, &#x27;run_system_tests&#x27;: False, &#x27;test&#x27;: None, &#x27;folder&#x27;: &#x27;C:\\\\Users\\\\mansi\\\\Downloads\\\\web2py_src\\\\web2py&#x27;, &#x27;config&#x27;: &#x27;&#x27;, &#x27;minthreads&#x27;: None, &#x27;shell&#x27;: None, &#x27;run&#x27;: &#x27;&#x27;, &#x27;log_filename&#x27;: &#x27;httpserver.log&#x27;, &#x27;profiler_dir&#x27;: None, &#x27;args&#x27;: [&#x27;&#x27;], &#x27;socket_timeout&#x27;: 5, &#x27;ssl_ca_certificate&#x27;: None, &#x27;scheduler&#x27;: None, &#x27;interfaces&#x27;: None, &#x27;ssl_private_key&#x27;: &#x27;&#x27;, &#x27;gae&#x27;: None, &#x27;password&#x27;: &#x27;&lt;ask&gt;&#x27;, &#x27;request_queue_size&#x27;: 5, &#x27;ssl_certificate&#x27;: &#x27;&#x27;, &#x27;cronjob&#x27;: False, &#x27;numthreads&#x27;: None, &#x27;quiet&#x27;: False, &#x27;import_models&#x27;: False, &#x27;timeout&#x27;: 10, &#x27;plain&#x27;: False, &#x27;nobanner&#x27;: False}&gt;</div></td></tr><tr><td style="font-weight:bold;vertical-align:top;">db_sessions</td><td style="vertical-align:top;">:</td><td><div>set([])</div></td></tr><tr><td style="font-weight:bold;vertical-align:top;">debugging</td><td style="vertical-align:top;">:</td><td><div>True</div></td></tr><tr><td style="font-weight:bold;vertical-align:top;">gluon_parent</td><td style="vertical-align:top;">:</td><td><div>C:\\Users\\mansi\\Downloads\\web2py_src\\web2py</div></td></tr><tr><td style="font-weight:bold;vertical-align:top;">is_jython</td><td style="vertical-align:top;">:</td><td><div>False</div></td></tr><tr><td style="font-weight:bold;vertical-align:top;">is_pypy</td><td style="vertical-align:top;">:</td><td><div>False</div></td></tr><tr><td style="font-weight:bold;vertical-align:top;">is_source</td><td style="vertical-align:top;">:</td><td><div>True</div></td></tr><tr><td style="font-weight:bold;vertical-align:top;">local_hosts</td><td style="vertical-align:top;">:</td><td><div><table><tr><td><div>2001:0:5ef5:79fb:188d:c6b:3f57:fff2</div></td></tr><tr><td><div>fe80::202b:cfb2:565e:a5d0%4</div></td></tr><tr><td><div>::ffff:127.0.0.1</div></td></tr><tr><td><div>::1</div></td></tr><tr><td><div>fe80::188d:c6b:3f57:fff2%7</div></td></tr><tr><td><div>127.0.0.1</div></td></tr><tr><td><div>192.168.0.13</div></td></tr><tr><td><div>mansi</div></td></tr><tr><td><div>2601:9:500:4620:202b:cfb2:565e:a5d0</div></td></tr><tr><td><div>2601:9:500:4620:e5bd:2d44:e26:2c3f</div></td></tr><tr><td><div>2601:9:500:4620:3623:87ff:fec5:9727</div></td></tr></table></div></td></tr><tr><td style="font-weight:bold;vertical-align:top;">web2py_version</td><td style="vertical-align:top;">:</td><td><div>2.9.12-stable+timestamp.2015.01.17.06.11.03</div></td></tr></table></div></td></tr><tr><td style="font-weight:bold;vertical-align:top;">is_https</td><td style="vertical-align:top;">:</td><td><div>False</div></td></tr><tr><td style="font-weight:bold;vertical-align:top;">is_local</td><td style="vertical-align:top;">:</td><td><div>True</div></td></tr><tr><td style="font-weight:bold;vertical-align:top;">is_restful</td><td style="vertical-align:top;">:</td><td><div>False</div></td></tr><tr><td style="font-weight:bold;vertical-align:top;">is_sheduler</td><td style="vertical-align:top;">:</td><td><div>None</div></td></tr><tr><td style="font-weight:bold;vertical-align:top;">is_shell</td><td style="vertical-align:top;">:</td><td><div>None</div></td></tr><tr><td style="font-weight:bold;vertical-align:top;">now</td><td style="vertical-align:top;">:</td><td><div>datetime.datetime(2015, 5, 7, 19, 54, 58, 135000)</div></td></tr><tr><td style="font-weight:bold;vertical-align:top;">raw_args</td><td style="vertical-align:top;">:</td><td><div></div></td></tr><tr><td style="font-weight:bold;vertical-align:top;">raw_extension</td><td style="vertical-align:top;">:</td><td><div>None</div></td></tr><tr><td style="font-weight:bold;vertical-align:top;">url</td><td style="vertical-align:top;">:</td><td><div>/smartapp/default/activateBeacon</div></td></tr><tr><td style="font-weight:bold;vertical-align:top;">utcnow</td><td style="vertical-align:top;">:</td><td><div>datetime.datetime(2015, 5, 8, 1, 54, 58, 135000)</div></td></tr><tr><td style="font-weight:bold;vertical-align:top;">uuid</td><td style="vertical-align:top;">:</td><td><div>smartapp/127.0.0.1.2015-05-07.19-54-58.aebd5f99-a46e-468e-81aa-879578886f6d</div></td></tr><tr><td style="font-weight:bold;vertical-align:top;">wsgi</td><td style="vertical-align:top;">:</td><td><div>&lt;gluon.main.LazyWSGI object at 0x08437CB0&gt;</div></td></tr></table></div>'
tRp103
sS'frames'
p104
(lp105
(dp106
S'file'
p107
S'C:\\Users\\mansi\\Downloads\\web2py_src\\web2py\\gluon\\restricted.py'
p108
sS'dump'
p109
(dp110
S'environment'
p111
S"{'A': <class 'gluon.html.A'>, 'ANY_OF': <class 'gluon.validators.ANY_OF'>, 'ASSIGNJS': <function ASSIGNJS>, 'Auth': <class 'gluon.tools.Auth'>, 'B': <class 'gluon.html.B'>, 'BEAUTIFY': <class 'gluon.html.BEAUTIFY'>, 'BODY': <class 'gluon.html.BODY'>, 'BR': <class 'gluon.html.BR'>, 'BUTTON': <class 'gluon.html.BUTTON'>, 'CAT': <class 'gluon.html.CAT'>, ...}"
p112
sS'ccode'
p113
S'<code object <module> at 08FD9E78, file "C:\\User...ations\\smartapp\\controllers/default.py", line 11>'
p114
ssS'lnum'
p115
I224
sS'lines'
p116
(dp117
I224
S'        exec ccode in environment'
p118
sI225
S'    except HTTP:'
p119
sI226
S'        raise'
p120
sI227
S'    except RestrictedError:'
p121
sI228
S'        # do not encapsulate (obfuscate) the original RestrictedError'
p122
sI219
S'    try:'
p123
sI220
S'        if isinstance(code, types.CodeType):'
p124
sI221
S'            ccode = code'
p125
sI222
S'        else:'
p126
sI223
S'            ccode = compile2(code, layer)'
p127
ssS'call'
p128
S"(code='# -*- coding: utf-8 -*-\\n# this file is released ...\\nresponse._vars=response._caller(activateBeacon)\\n', environment={'A': <class 'gluon.html.A'>, 'ANY_OF': <class 'gluon.validators.ANY_OF'>, 'ASSIGNJS': <function ASSIGNJS>, 'Auth': <class 'gluon.tools.Auth'>, 'B': <class 'gluon.html.B'>, 'BEAUTIFY': <class 'gluon.html.BEAUTIFY'>, 'BODY': <class 'gluon.html.BODY'>, 'BR': <class 'gluon.html.BR'>, 'BUTTON': <class 'gluon.html.BUTTON'>, 'CAT': <class 'gluon.html.CAT'>, ...}, layer=r'C:\\Users\\mansi\\Downloads\\web2py_src\\web2py\\applications\\smartapp\\controllers/default.py')"
p129
sS'func'
p130
S'restricted'
p131
sa(dp132
g107
S'C:\\Users\\mansi\\Downloads\\web2py_src\\web2py\\applications\\smartapp\\controllers\\default.py'
p133
sg109
(dp134
sg115
I545
sg116
(dp135
I534
S'def api():'
p136
sI535
S'    """'
p137
sI536
S'    this is example of API with access control'
p138
sI537
S'    WEB2PY provides Hypermedia API (Collection+JSON) Experimental'
p139
sI538
S'    """'
p140
sI539
S'    from gluon.contrib.hypermedia import Collection'
p141
sI540
S'    rules = {'
p142
sI541
S"        '<tablename>': {'GET':{},'POST':{},'PUT':{},'DELETE':{}},"
p143
sI542
S'        }'
p144
sI543
S'    return Collection(db).process(request,response,rules)'
p145
ssg128
S'()'
p146
sg130
S'<module>'
p147
sa(dp148
g107
S'C:\\Users\\mansi\\Downloads\\web2py_src\\web2py\\gluon\\globals.py'
p149
sg109
(dp150
S'self'
p151
S'undefined'
p152
sS'f'
S'<function activateBeacon>'
p153
ssg115
I393
sg116
(dp154
I388
S"        self.flash = ''            # used by the default view layout"
p155
sI389
S'        self.meta = Storage()      # used by web2py_ajax.html'
p156
sI390
S'        self.menu = []             # used by the default view layout'
p157
sI391
S'        self.files = []            # used by web2py_ajax.html'
p158
sI392
S'        self._vars = None'
p159
sI393
S'        self._caller = lambda f: f()'
p160
sI394
S'        self._view_environment = None'
p161
sI395
S'        self._custom_commit = None'
p162
sI396
S'        self._custom_rollback = None'
p163
sI397
S"        self.generic_patterns = ['*']"
p164
ssg128
S'(f=<function activateBeacon>)'
p165
sg130
S'<lambda>'
p166
sa(dp167
g107
S'C:\\Users\\mansi\\Downloads\\web2py_src\\web2py\\applications\\smartapp\\controllers\\default.py'
p168
sg109
(dp169
S'json.load'
p170
S'<function load>'
p171
sS'res'
p172
g152
sS'global json'
p173
S"<module 'gluon.contrib.simplejson' from 'C:\\User...rc\\web2py\\gluon\\contrib\\simplejson\\__init__.pyc'>"
p174
sS'req'
p175
S'<urllib2.Request instance>'
p176
sS'urllib2'
p177
S"<module 'urllib2' from 'C:\\Python27\\lib\\urllib2.pyc'>"
p178
sS'urllib2.urlopen'
p179
S'<function urlopen>'
p180
ssg115
I306
sg116
(dp181
I301
S"             'Authorization': 'Token token=f50ccc1aab3314434ae32dada87312cb',"
p182
sI302
S"             'Content-Type': 'application/json'"
p183
sI303
S'             }'
p184
sI304
S'            req = urllib2.Request('
p185
sI305
S"            'https://manager.gimbal.com/api/beacons',data_json, headers)"
p186
sI306
S'            res=json.load(urllib2.urlopen(req))'
p187
sI307
S''
sI308
S''
sI309
S''
sI310
S'            if(res) :'
p188
ssg128
S'()'
p189
sg130
S'activateBeacon'
p190
sa(dp191
g107
S'C:\\Python27\\lib\\urllib2.py'
p192
sg109
(dp193
S'url'
p194
S'<urllib2.Request instance>'
p195
sS'opener'
p196
S'<urllib2.OpenerDirector instance>'
p197
sS'data'
p198
S'None'
p199
sS'timeout'
p200
S'<object object>'
p201
sS'opener.open'
p202
S'<bound method OpenerDirector.open of <urllib2.OpenerDirector instance>>'
p203
ssg115
I154
sg116
(dp204
I149
S'        opener = build_opener(https_handler)'
p205
sI150
S'    elif _opener is None:'
p206
sI151
S'        _opener = opener = build_opener()'
p207
sI152
S'    else:'
p208
sI153
S'        opener = _opener'
p209
sI154
S'    return opener.open(url, data, timeout)'
p210
sI155
S''
sI156
S'def install_opener(opener):'
p211
sI157
S'    global _opener'
p212
sI158
S'    _opener = opener'
p213
ssg128
S'(url=<urllib2.Request instance>, data=None, timeout=<object object>, cafile=None, capath=None, cadefault=False, context=None)'
p214
sg130
S'urlopen'
p215
sa(dp216
g107
S'C:\\Python27\\lib\\urllib2.py'
p217
sg109
(dp218
S'meth'
p219
S'<bound method HTTPErrorProcessor.http_response of <urllib2.HTTPErrorProcessor instance>>'
p220
sS'req'
p221
S'<urllib2.Request instance>'
p222
sS'response'
p223
S'<addinfourl at 148625768 whose fp = <socket._fileobject object>>'
p224
ssg115
I437
sg116
(dp225
I432
S''
sI433
S'        # post-process response'
p226
sI434
S'        meth_name = protocol+"_response"'
p227
sI435
S'        for processor in self.process_response.get(protocol, []):'
p228
sI436
S'            meth = getattr(processor, meth_name)'
p229
sI437
S'            response = meth(req, response)'
p230
sI438
S''
sI439
S'        return response'
p231
sI440
S''
sI441
S'    def _open(self, req, data=None):'
p232
ssg128
S'(self=<urllib2.OpenerDirector instance>, fullurl=<urllib2.Request instance>, data=None, timeout=<object object>)'
p233
sg130
S'open'
p234
sa(dp235
g107
S'C:\\Python27\\lib\\urllib2.py'
p236
sg109
(dp237
S'msg'
p238
S"'Unprocessable Entity'"
p239
sS'code'
p240
S'422'
p241
sS'request'
p242
S'<urllib2.Request instance>'
p243
sS'response'
p244
S'<addinfourl at 148625768 whose fp = <socket._fileobject object>>'
p245
sS'hdrs'
p246
S'<httplib.HTTPMessage instance>'
p247
ssg115
I550
sg116
(dp248
I545
S''
sI546
S'        # According to RFC 2616, "2xx" code indicates that the client\'s'
p249
sI547
S'        # request was successfully received, understood, and accepted.'
p250
sI548
S'        if not (200 <= code < 300):'
p251
sI549
S'            response = self.parent.error('
p252
sI550
S"                'http', request, response, code, msg, hdrs)"
p253
sI551
S''
sI552
S'        return response'
p254
sI553
S''
sI554
S'    https_response = http_response'
p255
ssg128
S'(self=<urllib2.HTTPErrorProcessor instance>, request=<urllib2.Request instance>, response=<addinfourl at 148625768 whose fp = <socket._fileobject object>>)'
p256
sg130
S'http_response'
p257
sa(dp258
g107
S'C:\\Python27\\lib\\urllib2.py'
p259
sg109
(dp260
S'self._call_chain'
p261
S'<bound method OpenerDirector._call_chain of <urllib2.OpenerDirector instance>>'
p262
sS'self'
p263
S'<urllib2.OpenerDirector instance>'
p264
sS'args'
p265
S"({301: [<urllib2.HTTPRedirectHandler instance>], 302: [<urllib2.HTTPRedirectHandler instance>], 303: [<urllib2.HTTPRedirectHandler instance>], 307: [<urllib2.HTTPRedirectHandler instance>], 'default': [<urllib2.HTTPDefaultErrorHandler instance>]}, 'default', 'http_error_default', <urllib2.Request instance>, <addinfourl at 148625768 whose fp = <socket._fileobject object>>, 422, 'Unprocessable Entity', <httplib.HTTPMessage instance>)"
p266
ssg115
I475
sg116
(dp267
I470
S'        if result:'
p268
sI471
S'            return result'
p269
sI472
S''
sI473
S'        if http_err:'
p270
sI474
S"            args = (dict, 'default', 'http_error_default') + orig_args"
p271
sI475
S'            return self._call_chain(*args)'
p272
sI476
S''
sI477
S'# XXX probably also want an abstract factory that knows when it makes'
p273
sI478
S'# sense to skip a superclass in favor of a subclass and when it might'
p274
sI479
S'# make sense to include both'
p275
ssg128
S"(self=<urllib2.OpenerDirector instance>, proto=422, *args=({301: [<urllib2.HTTPRedirectHandler instance>], 302: [<urllib2.HTTPRedirectHandler instance>], 303: [<urllib2.HTTPRedirectHandler instance>], 307: [<urllib2.HTTPRedirectHandler instance>], 'default': [<urllib2.HTTPDefaultErrorHandler instance>]}, 'default', 'http_error_default', <urllib2.Request instance>, <addinfourl at 148625768 whose fp = <socket._fileobject object>>, 422, 'Unprocessable Entity', <httplib.HTTPMessage instance>))"
p276
sg130
S'error'
p277
sa(dp278
g107
S'C:\\Python27\\lib\\urllib2.py'
p279
sg109
(dp280
S'args'
p281
S"(<urllib2.Request instance>, <addinfourl at 148625768 whose fp = <socket._fileobject object>>, 422, 'Unprocessable Entity', <httplib.HTTPMessage instance>)"
p282
sS'result'
p283
g152
sS'func'
p284
S'<bound method HTTPDefaultErrorHandler.http_error...lt of <urllib2.HTTPDefaultErrorHandler instance>>'
p285
ssg115
I409
sg116
(dp286
I404
S'        # could.  Otherwise, they return the response.'
p287
sI405
S'        handlers = chain.get(kind, ())'
p288
sI406
S'        for handler in handlers:'
p289
sI407
S'            func = getattr(handler, meth_name)'
p290
sI408
S''
sI409
S'            result = func(*args)'
p291
sI410
S'            if result is not None:'
p292
sI411
S'                return result'
p293
sI412
S''
sI413
S'    def open(self, fullurl, data=None, timeout=socket._GLOBAL_DEFAULT_TIMEOUT):'
p294
ssg128
S"(self=<urllib2.OpenerDirector instance>, chain={301: [<urllib2.HTTPRedirectHandler instance>], 302: [<urllib2.HTTPRedirectHandler instance>], 303: [<urllib2.HTTPRedirectHandler instance>], 307: [<urllib2.HTTPRedirectHandler instance>], 'default': [<urllib2.HTTPDefaultErrorHandler instance>]}, kind='default', meth_name='http_error_default', *args=(<urllib2.Request instance>, <addinfourl at 148625768 whose fp = <socket._fileobject object>>, 422, 'Unprocessable Entity', <httplib.HTTPMessage instance>))"
p295
sg130
S'_call_chain'
p296
sa(dp297
g107
S'C:\\Python27\\lib\\urllib2.py'
p298
sg109
(dp299
S'fp'
p300
S'<addinfourl at 148625768 whose fp = <socket._fileobject object>>'
p301
sS'code'
p302
S'422'
p303
sS'hdrs'
p304
S'<httplib.HTTPMessage instance>'
p305
sS'req'
p306
S'<urllib2.Request instance>'
p307
sS'req.get_full_url'
p308
S'<bound method Request.get_full_url of <urllib2.Request instance>>'
p309
sS'msg'
p310
S"'Unprocessable Entity'"
p311
sS'global HTTPError'
p312
S"<class 'urllib2.HTTPError'>"
p313
ssg115
I558
sg116
(dp314
I553
S''
sI554
S'    https_response = http_response'
p315
sI555
S''
sI556
S'class HTTPDefaultErrorHandler(BaseHandler):'
p316
sI557
S'    def http_error_default(self, req, fp, code, msg, hdrs):'
p317
sI558
S'        raise HTTPError(req.get_full_url(), code, msg, hdrs, fp)'
p318
sI559
S''
sI560
S'class HTTPRedirectHandler(BaseHandler):'
p319
sI561
S'    # maximum number of redirections to any single URL'
p320
sI562
S'    # this is needed because of the state that cookies introduce'
p321
ssg128
S"(self=<urllib2.HTTPDefaultErrorHandler instance>, req=<urllib2.Request instance>, fp=<addinfourl at 148625768 whose fp = <socket._fileobject object>>, code=422, msg='Unprocessable Entity', hdrs=<httplib.HTTPMessage instance>)"
p322
sg130
S'http_error_default'
p323
sasS'pyver'
p324
S'Python 2.7.9: C:\\Python27\\python.exe (prefix: C:\\Python27)'
p325
sS'session'
p326
g102
(S's8\x01\x00\x00<div><table><tr><td style="font-weight:bold;vertical-align:top;">last_orderby</td><td style="vertical-align:top;">:</td><td><div>None</div></td></tr><tr><td style="font-weight:bold;vertical-align:top;">last_query</td><td style="vertical-align:top;">:</td><td><div>db.beacons.id&gt;0</div></td></tr></table></div>'
tRp327
sS'etype'
p328
S"<class 'urllib2.HTTPError'>"
p329
sS'date'
p330
S'Thu May 07 19:55:01 2015'
p331
sS'response'
p332
g102
(S's\xed2\x00\x00<div><table><tr><td style="font-weight:bold;vertical-align:top;">body</td><td style="vertical-align:top;">:</td><td><div>&lt;cStringIO.StringO object at 0x0979AD60&gt;</div></td></tr><tr><td style="font-weight:bold;vertical-align:top;">cookies</td><td style="vertical-align:top;">:</td><td><div><table><tr><td style="font-weight:bold;vertical-align:top;">session_id_smartapp</td><td style="vertical-align:top;">:</td><td><div>127.0.0.1-71a174d4-dd42-4c92-a212-5ff3f9acb01f<table><tr><td style="font-weight:bold;vertical-align:top;">comment</td><td style="vertical-align:top;">:</td><td><div></div></td></tr><tr><td style="font-weight:bold;vertical-align:top;">domain</td><td style="vertical-align:top;">:</td><td><div></div></td></tr><tr><td style="font-weight:bold;vertical-align:top;">expires</td><td style="vertical-align:top;">:</td><td><div></div></td></tr><tr><td style="font-weight:bold;vertical-align:top;">httponly</td><td style="vertical-align:top;">:</td><td><div></div></td></tr><tr><td style="font-weight:bold;vertical-align:top;">max-age</td><td style="vertical-align:top;">:</td><td><div></div></td></tr><tr><td style="font-weight:bold;vertical-align:top;">path</td><td style="vertical-align:top;">:</td><td><div>/</div></td></tr><tr><td style="font-weight:bold;vertical-align:top;">secure</td><td style="vertical-align:top;">:</td><td><div></div></td></tr><tr><td style="font-weight:bold;vertical-align:top;">version</td><td style="vertical-align:top;">:</td><td><div></div></td></tr></table></div></td></tr></table></div></td></tr><tr><td style="font-weight:bold;vertical-align:top;">delimiters</td><td style="vertical-align:top;">:</td><td><div><table><tr><td><div>{{</div></td></tr><tr><td><div>}}</div></td></tr></table></div></td></tr><tr><td style="font-weight:bold;vertical-align:top;">files</td><td style="vertical-align:top;">:</td><td><div><table></table></div></td></tr><tr><td style="font-weight:bold;vertical-align:top;">flash</td><td style="vertical-align:top;">:</td><td><div></div></td></tr><tr><td style="font-weight:bold;vertical-align:top;">form_label_separator</td><td style="vertical-align:top;">:</td><td><div>: </div></td></tr><tr><td style="font-weight:bold;vertical-align:top;">formstyle</td><td style="vertical-align:top;">:</td><td><div>table3cols</div></td></tr><tr><td style="font-weight:bold;vertical-align:top;">generic_patterns</td><td style="vertical-align:top;">:</td><td><div><table><tr><td><div>*</div></td></tr></table></div></td></tr><tr><td style="font-weight:bold;vertical-align:top;">google_analytics_id</td><td style="vertical-align:top;">:</td><td><div>None</div></td></tr><tr><td style="font-weight:bold;vertical-align:top;">headers</td><td style="vertical-align:top;">:</td><td><div><table><tr><td style="font-weight:bold;vertical-align:top;">X-Powered-By</td><td style="vertical-align:top;">:</td><td><div>web2py</div></td></tr></table></div></td></tr><tr><td style="font-weight:bold;vertical-align:top;">logo</td><td style="vertical-align:top;">:</td><td><div><a class="brand" href="http://www.web2py.com/"><b>web<span>2</span>py</b>&trade;&nbsp;</a></div></td></tr><tr><td style="font-weight:bold;vertical-align:top;">menu</td><td style="vertical-align:top;">:</td><td><div><table><tr><td><div><table><tr><td><div>Home</div></td></tr><tr><td><div>False</div></td></tr><tr><td><div>/smartapp/default/index</div></td></tr><tr><td><div><table></table></div></td></tr></table></div></td></tr><tr><td><div><table><tr><td><div><span class="highlighted">web2py</span></div></td></tr><tr><td><div>False</div></td></tr><tr><td><div>http://web2py.com</div></td></tr><tr><td><div><table><tr><td><div><table><tr><td><div>My Sites</div></td></tr><tr><td><div>False</div></td></tr><tr><td><div>/admin/default/site</div></td></tr></table></div></td></tr><tr><td><div><table><tr><td><div>This App</div></td></tr><tr><td><div>False</div></td></tr><tr><td><div>/admin/default/design/smartapp</div></td></tr><tr><td><div>[(&lt;lazyT &#x27;Controller&#x27;&gt;, False, &#x27;/admin/default/edit/smartapp/controllers/default.py&#x27;), (&lt;lazyT &#x27;View&#x27;&gt;, False, &#x27;/admin/default/edit/smartapp/views/default/activateBeacon.html&#x27;), (&lt;lazyT &#x27;Layout&#x27;&gt;, False, &#x27;/admin/default/edit/smartapp/views/layout.html&#x27;), (&lt;lazyT &#x27;Stylesheet&#x27;&gt;, False, &#x27;/admin/default/edit/smartapp/static/css/web2py.css&#x27;), (&lt;lazyT &#x27;DB Model&#x27;&gt;, False, &#x27;/admin/default/edit/smartapp/models/db.py&#x27;), (&lt;lazyT &#x27;Menu Model&#x27;&gt;, False, &#x27;/admin/default/edit/smartapp/models/menu.py&#x27;), (&lt;lazyT &#x27;Database&#x27;&gt;, False, &#x27;/smartapp/appadmin/index&#x27;), (&lt;lazyT &#x27;Errors&#x27;&gt;, False, &#x27;/admin/default/errors/smartapp&#x27;), (&lt;lazyT &#x27;About&#x27;&gt;, False, &#x27;/admin/default/about/smartapp&#x27;)]</div></td></tr></table></div></td></tr><tr><td><div><table><tr><td><div>web2py.com</div></td></tr><tr><td><div>False</div></td></tr><tr><td><div>http://www.web2py.com</div></td></tr><tr><td><div>[(&lt;lazyT &#x27;Download&#x27;&gt;, False, &#x27;http://www.web2py.com/examples/default/download&#x27;), (&lt;lazyT &#x27;Support&#x27;&gt;, False, &#x27;http://www.web2py.com/examples/default/support&#x27;), (&lt;lazyT &#x27;Demo&#x27;&gt;, False, &#x27;http://web2py.com/demo_admin&#x27;), (&lt;lazyT &#x27;Quick Examples&#x27;&gt;, False, &#x27;http://web2py.com/examples/default/examples&#x27;), (&lt;lazyT &#x27;FAQ&#x27;&gt;, False, &#x27;http://web2py.com/AlterEgo&#x27;), (&lt;lazyT &#x27;Videos&#x27;&gt;, False, &#x27;http://www.web2py.com/examples/default/videos/&#x27;), (&lt;lazyT &#x27;Free Applications&#x27;&gt;, False, &#x27;http://web2py.com/appliances&#x27;), (&lt;lazyT &#x27;Plugins&#x27;&gt;, False, &#x27;http://web2py.com/plugins&#x27;), (&lt;lazyT &#x27;Layouts&#x27;&gt;, False, &#x27;http://web2py.com/layouts&#x27;), (&lt;lazyT &#x27;Recipes&#x27;&gt;, False, &#x27;http://web2pyslices.com/&#x27;), (&lt;lazyT &#x27;Semantic&#x27;&gt;, False, &#x27;http://web2py.com/semantic&#x27;)]</div></td></tr></table></div></td></tr><tr><td><div><table><tr><td><div>Documentation</div></td></tr><tr><td><div>False</div></td></tr><tr><td><div>http://www.web2py.com/book</div></td></tr><tr><td><div>[(&lt;lazyT &#x27;Preface&#x27;&gt;, False, &#x27;http://www.web2py.com/book/default/chapter/00&#x27;), (&lt;lazyT &#x27;Introduction&#x27;&gt;, False, &#x27;http://www.web2py.com/book/default/chapter/01&#x27;), (&lt;lazyT &#x27;Python&#x27;&gt;, False, &#x27;http://www.web2py.com/book/default/chapter/02&#x27;), (&lt;lazyT &#x27;Overview&#x27;&gt;, False, &#x27;http://www.web2py.com/book/default/chapter/03&#x27;), (&lt;lazyT &#x27;The Core&#x27;&gt;, False, &#x27;http://www.web2py.com/book/default/chapter/04&#x27;), (&lt;lazyT &#x27;The Views&#x27;&gt;, False, &#x27;http://www.web2py.com/book/default/chapter/05&#x27;), (&lt;lazyT &#x27;Database&#x27;&gt;, False, &#x27;http://www.web2py.com/book/default/chapter/06&#x27;), (&lt;lazyT &#x27;Forms and Validators&#x27;&gt;, False, &#x27;http://www.web2py.com/book/default/chapter/07&#x27;), (&lt;lazyT &#x27;Email and SMS&#x27;&gt;, False, &#x27;http://www.web2py.com/book/default/chapter/08&#x27;), (&lt;lazyT &#x27;Access Control&#x27;&gt;, False, &#x27;http://www.web2py.com/book/default/chapter/09&#x27;), (&lt;lazyT &#x27;Services&#x27;&gt;, False, &#x27;http://www.web2py.com/book/default/chapter/10&#x27;), (&lt;lazyT &#x27;Ajax Recipes&#x27;&gt;, False, &#x27;http://www.web2py.com/book/default/chapter/11&#x27;), (&lt;lazyT &#x27;Components and Plugins&#x27;&gt;, False, &#x27;http://www.web2py.com/book/default/chapter/12&#x27;), (&lt;lazyT &#x27;Deployment Recipes&#x27;&gt;, False, &#x27;http://www.web2py.com/book/default/chapter/13&#x27;), (&lt;lazyT &#x27;Other Recipes&#x27;&gt;, False, &#x27;http://www.web2py.com/book/default/chapter/14&#x27;), (&lt;lazyT &#x27;Buy this book&#x27;&gt;, False, &#x27;http://stores.lulu.com/web2py&#x27;)]</div></td></tr></table></div></td></tr><tr><td><div><table><tr><td><div>Community</div></td></tr><tr><td><div>False</div></td></tr><tr><td><div>None</div></td></tr><tr><td><div>[(&lt;lazyT &#x27;Groups&#x27;&gt;, False, &#x27;http://www.web2py.com/examples/default/usergroups&#x27;), (&lt;lazyT &#x27;Twitter&#x27;&gt;, False, &#x27;http://twitter.com/web2py&#x27;), (&lt;lazyT &#x27;Live Chat&#x27;&gt;, False, &#x27;http://webchat.freenode.net/?channels=web2py&#x27;)]</div></td></tr></table></div></td></tr><tr><td><div><table><tr><td><div>Plugins</div></td></tr><tr><td><div>False</div></td></tr><tr><td><div>None</div></td></tr><tr><td><div>[(&#x27;plugin_wiki&#x27;, False, &#x27;http://web2py.com/examples/default/download&#x27;), (&lt;lazyT &#x27;Other Plugins&#x27;&gt;, False, &#x27;http://web2py.com/plugins&#x27;), (&lt;lazyT &#x27;Layout Plugins&#x27;&gt;, False, &#x27;http://web2py.com/layouts&#x27;)]</div></td></tr></table></div></td></tr></table></div></td></tr></table></div></td></tr></table></div></td></tr><tr><td style="font-weight:bold;vertical-align:top;">meta</td><td style="vertical-align:top;">:</td><td><div><table><tr><td style="font-weight:bold;vertical-align:top;">author</td><td style="vertical-align:top;">:</td><td><div>Your Name &lt;you@example.com&gt;</div></td></tr><tr><td style="font-weight:bold;vertical-align:top;">generator</td><td style="vertical-align:top;">:</td><td><div>Web2py Web Framework</div></td></tr><tr><td style="font-weight:bold;vertical-align:top;">keywords</td><td style="vertical-align:top;">:</td><td><div>web2py, python, framework</div></td></tr></table></div></td></tr><tr><td style="font-weight:bold;vertical-align:top;">models_to_run</td><td style="vertical-align:top;">:</td><td><div><table><tr><td><div>^\\w+\\.py$</div></td></tr><tr><td><div>^default/\\w+\\.py$</div></td></tr><tr><td><div>^default/activateBeacon/\\w+\\.py$</div></td></tr></table></div></td></tr><tr><td style="font-weight:bold;vertical-align:top;">postprocessing</td><td style="vertical-align:top;">:</td><td><div><table></table></div></td></tr><tr><td style="font-weight:bold;vertical-align:top;">session_client</td><td style="vertical-align:top;">:</td><td><div>127.0.0.1</div></td></tr><tr><td style="font-weight:bold;vertical-align:top;">session_cookie_compression_level</td><td style="vertical-align:top;">:</td><td><div>None</div></td></tr><tr><td style="font-weight:bold;vertical-align:top;">session_cookie_expires</td><td style="vertical-align:top;">:</td><td><div>None</div></td></tr><tr><td style="font-weight:bold;vertical-align:top;">session_cookie_key</td><td style="vertical-align:top;">:</td><td><div>None</div></td></tr><tr><td style="font-weight:bold;vertical-align:top;">session_data_name</td><td style="vertical-align:top;">:</td><td><div>session_data_smartapp</div></td></tr><tr><td style="font-weight:bold;vertical-align:top;">session_file</td><td style="vertical-align:top;">:</td><td><div>&lt;open file &#x27;C:\\\\Users\\\\mansi\\\\Downloads\\\\web2py_src\\\\web2py\\\\applications\\\\smartapp\\\\sessions\\\\18b\\\\046\\\\127.0.0.1-71a174d4-dd42-4c92-a212-5ff3f9acb01f&#x27;, mode &#x27;rb+&#x27; at 0x08A44078&gt;</div></td></tr><tr><td style="font-weight:bold;vertical-align:top;">session_filename</td><td style="vertical-align:top;">:</td><td><div>C:\\Users\\mansi\\Downloads\\web2py_src\\web2py\\applications\\smartapp\\sessions\\127.0.0.1-71a174d4-dd42-4c92-a212-5ff3f9acb01f</div></td></tr><tr><td style="font-weight:bold;vertical-align:top;">session_hash</td><td style="vertical-align:top;">:</td><td><div>27ef5796f527a05c87c9df28a4b2613d</div></td></tr><tr><td style="font-weight:bold;vertical-align:top;">session_id</td><td style="vertical-align:top;">:</td><td><div>127.0.0.1-71a174d4-dd42-4c92-a212-5ff3f9acb01f</div></td></tr><tr><td style="font-weight:bold;vertical-align:top;">session_id_name</td><td style="vertical-align:top;">:</td><td><div>session_id_smartapp</div></td></tr><tr><td style="font-weight:bold;vertical-align:top;">session_locked</td><td style="vertical-align:top;">:</td><td><div>True</div></td></tr><tr><td style="font-weight:bold;vertical-align:top;">session_masterapp</td><td style="vertical-align:top;">:</td><td><div>smartapp</div></td></tr><tr><td style="font-weight:bold;vertical-align:top;">session_new</td><td style="vertical-align:top;">:</td><td><div>False</div></td></tr><tr><td style="font-weight:bold;vertical-align:top;">session_storage_type</td><td style="vertical-align:top;">:</td><td><div>file</div></td></tr><tr><td style="font-weight:bold;vertical-align:top;">status</td><td style="vertical-align:top;">:</td><td><div>200</div></td></tr><tr><td style="font-weight:bold;vertical-align:top;">subtitle</td><td style="vertical-align:top;">:</td><td><div></div></td></tr><tr><td style="font-weight:bold;vertical-align:top;">title</td><td style="vertical-align:top;">:</td><td><div>Smartapp</div></td></tr><tr><td style="font-weight:bold;vertical-align:top;">view</td><td style="vertical-align:top;">:</td><td><div>default/activateBeacon.html</div></td></tr></table></div>'
tRp333
sS'locals'
p334
(dp335
g59
S'<addinfourl at 148625768 whose fp = <socket._fileobject object>>'
p336
sg6
S'422'
p337
sg61
S'<httplib.HTTPMessage instance>'
p338
sS'self'
p339
S'<urllib2.HTTPDefaultErrorHandler instance>'
p340
sS'req'
p341
S'<urllib2.Request instance>'
p342
sg55
S"'Unprocessable Entity'"
p343
sssS'traceback'
p344
S'Traceback (most recent call last):\n  File "C:\\Users\\mansi\\Downloads\\web2py_src\\web2py\\gluon\\restricted.py", line 224, in restricted\n    exec ccode in environment\n  File "C:\\Users\\mansi\\Downloads\\web2py_src\\web2py\\applications\\smartapp\\controllers/default.py", line 545, in <module>\n  File "C:\\Users\\mansi\\Downloads\\web2py_src\\web2py\\gluon\\globals.py", line 393, in <lambda>\n    self._caller = lambda f: f()\n  File "C:\\Users\\mansi\\Downloads\\web2py_src\\web2py\\applications\\smartapp\\controllers/default.py", line 306, in activateBeacon\n    res=json.load(urllib2.urlopen(req))\n  File "C:\\Python27\\lib\\urllib2.py", line 154, in urlopen\n    return opener.open(url, data, timeout)\n  File "C:\\Python27\\lib\\urllib2.py", line 437, in open\n    response = meth(req, response)\n  File "C:\\Python27\\lib\\urllib2.py", line 550, in http_response\n    \'http\', request, response, code, msg, hdrs)\n  File "C:\\Python27\\lib\\urllib2.py", line 475, in error\n    return self._call_chain(*args)\n  File "C:\\Python27\\lib\\urllib2.py", line 409, in _call_chain\n    result = func(*args)\n  File "C:\\Python27\\lib\\urllib2.py", line 558, in http_error_default\n    raise HTTPError(req.get_full_url(), code, msg, hdrs, fp)\nHTTPError: HTTP Error 422: Unprocessable Entity\n'
p345
s.