(dp1
S'output'
p2
S"<class 'socket.error'> [Errno 10060] A connection attempt failed because the connected party did not properly respond after a period of time, or established connection failed because connected host has failed to respond"
p3
sS'layer'
p4
S'C:\\Users\\mansi\\Downloads\\web2py_src\\web2py\\applications\\smartapp\\controllers/default.py'
p5
sS'code'
p6
S'# -*- coding: utf-8 -*-\n# this file is released under public domain and you can use without limitations\n\n#########################################################################\n## This is a sample controller\n## - index is the default action of any application\n## - user is required for authentication and authorization\n## - download is for downloading files uploaded in the db (does streaming)\n## - api is an example of Hypermedia API support and access control\n#########################################################################\nimport gluon.contrib.simplejson as json\n\ndef register():\n\n    uemail=request.vars.uemail\n    password=request.vars.password\n    phone=request.vars.phone\n    address=request.vars.address\n    zipcode=request.vars.zipcode\n    code =412\n    message="error"\n    if uemail:\n        if password :\n            if phone :\n                if address :\n                    if zipcode :\n                        user_id=db.users.insert(uemail=uemail,password=password,phone=phone,address=address,zipcode=zipcode)\n                        if user_id:\n                                 message="success"\n                                 code=200\n\n    response.headers[\'Content-Type\']=\'application/json\'\n\n    response.status=int(code)\n    return json.dumps(dict(message=message))\n\ndef login():\n    import cgi\n    response.flash="Welcome"\n    id=request.vars.uemail\n    pwd=request.vars.password\n    rows=db(db.users.uemail==id).select(db.users.password)\n\n    if rows :\n        message="invalid username"\n        code=401\n        if(str(rows[0].password)==pwd) :\n            message="success"\n            code=200\n        else :\n            message="invalid  password"\n            code=401\n\n    else :\n       message="invalid username "\n       code=401\n\n    response.headers[\'Content-Type\']=\'application/json\'\n    response.status=int(code)\n    return json.dumps(dict(message=message))\n\n\ndef authenticate(uemail, password):\n\n    users= db((db.users.uemail== uemail)&(db.users.password==password)).select()\n    if users:\n        return True\n    else:\n        return False\n\ndef getuserrole(uemail):\n    \n  users= db((db.users.uemail== uemail)).select(db.users.role)\n  if users:\n        return users[0].role\n  \n\ndef addplace():\n    \n    uemail=request.vars.uemail\n    password=request.vars.password\n\n\n    place_desc=request.vars.place_desc\n    place_name=request.vars.place_name\n    place_addr=request.vars.place_addr\n    place_lat=""\n    place_long=""\n\n    valid_usr=authenticate(uemail,password)\n    if valid_usr:\n        usr_role=getuserrole(uemail)\n    \n        if(usr_role=="admin"):\n\n        #insert into gimbal server and get place-id , place_lat, place_long\n          \n\n            import urllib, urllib2, base64\n\n            data={"name":place_name}\n            data_json = json.dumps(data)\n            headers = {\n             \'Authorization\': \'Token token=f50ccc1aab3314434ae32dada87312cb\',\n             \'Content-Type\': \'application/json\'\n             }\n            req = urllib2.Request(\n            \'https://manager.gimbal.com/api/v2/places\',data_json, headers)\n            res=json.load(urllib2.urlopen(req))\n            place_id=res["id"]\n\n            #insert into datastore\n\n            pl_id=db.places.insert(place_id=place_id,place_desc=place_desc,place_name=place_name,place_addr=place_addr,place_lat=place_lat,\n                              place_long=place_long)\n            \n            if(pl_id) :\n                code=200\n                \n                message="success"\n                return json.dumps(dict(message=message))\n            else :\n                code=412\n         \n                message="error"\n              \n         \n        else:\n          code=401\n          message="user not authorized"\n\n    else:\n            code=412\n            message="User not Authenticated"\n\n    response.headers[\'Content-Type\']=\'application/json\'\n    response.status=int(code)\n    return json.dumps(dict(message=message))\n\ndef getplace():\n\n    # From Directly Gimbal\n    import urllib, urllib2, base64\n    \n    uemail=request.vars.uemail\n    password=request.vars.password\n\n    valid_usr=authenticate(uemail,password)\n    if valid_usr:\n\n        headers = {\n         \'Authorization\': \'Token token=f50ccc1aab3314434ae32dada87312cb\',\n         \'Content-Type\': \'application/json\'\n         }\n        req = urllib2.Request(\n        \'https://manager.gimbal.com/api/v2/places\',\n        None, headers)\n\n        code=200\n        response.headers[\'Content-Type\']=\'application/json\'\n        response.status=int(code)\n        return urllib2.urlopen(req).read()\n    \n    else:\n        code=412\n        response.headers[\'Content-Type\']=\'application/json\'\n        response.status=int(code)\n        return json.dumps(dict(message="error"))\n        \n\ndef getevents():\n\n    uemail=request.vars.uemail\n    password=request.vars.password\n    place_id=request.vars.place_id\n\n    valid_usr=authenticate(uemail,password)\n    if valid_usr:\n      #From Datastore\n        rows = db(db.events.ev_place_id==place_id).select()\n        code=200\n        response.headers[\'Content-Type\']=\'application/json\'\n        response.status=int(code)\n\n        return json.dumps([{\'event_id\':r.event_id,\'event_title\':r.event_title,\'event_desc\':r.event_desc,\'ev_place_lat\':r.ev_place_lat,\'ev_place_long\':r.ev_place_long,\'event_addr\':r.event_addr,\'icon_img_id\':r.icon_image_id,\'ev_place_id\':r.ev_place_id,\'event_timing\':r.event_timing,\'ev_img_url\':getimage(r.icon_image_id)} for r in rows])\n    else :\n        code=412\n        response.headers[\'Content-Type\']=\'application/json\'\n        response.status=int(code)\n        return json.dumps(dict(message=\'error\'))\n\n\n\ndef getplaces():\n\n    uemail=request.vars.uemail\n    password=request.vars.password\n\n    valid_usr=authenticate(uemail,password)\n    if valid_usr:\n      #From Datastore\n        rows = db(db.places.id>0).select()\n        code=200\n        response.headers[\'Content-Type\']=\'application/json\'\n        response.status=int(code)\n\n        return json.dumps([{\'id\':r.place_id,\'id_p\':r.id,\'name\':r.place_name,\'place_desc\':r.place_desc,\'place_lat\':r.place_lat,\'place_long\':r.place_long,\'place_addr\':r.place_addr,\'pl_img_id\':r.icon_image_id,\'pl_img_url\':getimage(r.icon_image_id)} for r in rows])\n    else :\n        code=412\n        response.headers[\'Content-Type\']=\'application/json\'\n        response.status=int(code)\n        return json.dumps(dict(message=\'error\'))\n\ndef addbeacon():\n\n    uemail=request.vars.uemail\n    password=request.vars.password\n\n\n    beacon_name=request.vars.beacon_name\n    b_factory_id=request.vars.b_factory_id\n    beacon_lat=""\n    beacon_long=""\n    beacon_status="Active"\n\n    valid_usr=authenticate(uemail,password)\n    if valid_usr:\n        usr_role=getuserrole(uemail)\n    \n        if(usr_role=="admin"):\n\n        #insert into gimbal server and get place-id , place_lat, place_long\n          \n\n            import urllib, urllib2, base64\n\n            data={"name":beacon_name,"factory_id":b_factory_id}\n            data_json = json.dumps(data)\n            headers = {\n             \'Authorization\': \'Token token=f50ccc1aab3314434ae32dada87312cb\',\n             \'Content-Type\': \'application/json\'\n             }\n            req = urllib2.Request(\n            \'https://manager.gimbal.com/api/beacons\',data_json, headers)\n            res=json.load(urllib2.urlopen(req))\n            beacon_id=res["id"]\n            b_battery_lvl=res["battery_level"]\n            #insert into datastore\n\n            b_id=db.beacons.insert(beacon_id=beacon_id,beacon_name=beacon_name,b_factory_id=b_factory_id,beacon_lat=beacon_lat,beacon_long=beacon_long,beacon_status=beacon_status,b_battery_lvl=b_battery_lvl)\n\n\n            if(b_id) :\n\n                message="success"\n                return json.dumps(dict(message=message))\n            else :\n                code=412\n\n                message="error"\n\n        else:\n          code=401\n          message="user not authorized"\n\n    else:\n            code=412\n            message="User not Authenticated"\n\n    response.headers[\'Content-Type\']=\'application/json\'\n    response.status=int(code)\n    return json.dumps(dict(message=message))\n\n\n    return None\n\ndef getallbeacons():\n\n    uemail=request.vars.uemail\n    password=request.vars.password\n\n    valid_usr=authenticate(uemail,password)\n    if valid_usr:\n      #From Datastore\n        rows = db(db.beacons.id>0).select()\n        code=200\n        response.headers[\'Content-Type\']=\'application/json\'\n        response.status=int(code)\n\n        return json.dumps([{\'id\':r.beacon_id,\'b_f_id\':r.b_factory_id,\'name\':r.beacon_name,\'beacon_desc\':r.beacon_desc,\'beacon_lat\':r.beacon_lat,\'beacon_long\':r.beacon_long,\'beacon_status\':r.beacon_status,\'b_place_id\':r.b_place_id,\'b_battery_lvl\':r.b_battery_lvl }for r in rows])\n    else :\n        code=412\n        response.headers[\'Content-Type\']=\'application/json\'\n        response.status=int(code)\n        return json.dumps(dict(message=\'error\'))\n\n    return None\n\n\ndef updateBeaconStatus():\n    \n    uemail=request.vars.uemail\n    password=request.vars.password\n    b_f_id=request.vars.b_f_id\n  \n\n    valid_usr=authenticate(uemail,password)\n    if valid_usr:\n        usr_role=getuserrole(uemail)\n    \n        if(usr_role=="admin"):\n\n        #insert into gimbal server and get place-id , place_lat, place_long\n          \n\n            import urllib, urllib2, base64,httplib\n\n            data={\'name\':\'John\'}\n            data_json = json.dumps(data)\n            url="https://manager.gimbal.com/api/v2/beacons/"+b_f_id\n            headers = {\n             \'Authorization\': \'Token token=f50ccc1aab3314434ae32dada87312cb\',\n             \'Content-Type\': \'application/json\'\n             }\n          \n            connection =  httplib.HTTPConnection(\'1.2.3.4:1234\')\n            body_content = \'BODY CONTENT GOES HERE\'\n            connection.request(\'PUT\', \'url\',data_json,headers)\n            result = connection.getresponse()\n           \n            \n            if(result) :\n                code=200\n                \n                message="success"\n                return json.dumps(dict(message=message))\n            else :\n                code=412\n         \n                message="error"\n              \n         \n        else:\n          code=401\n          message="user not authorized"\n\n    else:\n            code=412\n            message="User not Authenticated"\n\n    response.headers[\'Content-Type\']=\'application/json\'\n    response.status=int(code)\n    return json.dumps(dict(message=message))\n\n    return None\n\ndef getimage(img_id):\n    imgid=  img_id\n    imagename= db((db.image.id== imgid)).select(db.image.picture)\n    imagename[0].picture\n    url=imagename[0].picture\n    return url\n\n\n\n\ndef index():\n    """\n    example action using the internationalization operator T and flash\n    rendered by views/default/index.html or views/generic.html\n\n    if you need a simple wiki simply replace the two lines below with:\n    return auth.wiki()\n    """\n    response.flash = T("Welcome to web2py!")\n    return dict(message=T(\'Hello World\'))\n\n\ndef user():\n    """\n    exposes:\n    http://..../[app]/default/user/login\n    http://..../[app]/default/user/logout\n    http://..../[app]/default/user/register\n    http://..../[app]/default/user/profile\n    http://..../[app]/default/user/retrieve_password\n    http://..../[app]/default/user/change_password\n    http://..../[app]/default/user/manage_users (requires membership in\n    use @auth.requires_login()\n        @auth.requires_membership(\'group name\')\n        @auth.requires_permission(\'read\',\'table name\',record_id)\n    to decorate functions that need access control\n    """\n    return dict(form=auth())\n\n\n@cache.action()\ndef download():\n    """\n    allows downloading of uploaded files\n    http://..../[app]/default/download/[filename]\n    """\n    return response.download(request, db)\n\n\ndef call():\n    """\n    exposes services. for example:\n    http://..../[app]/default/call/jsonrpc\n    decorate with @services.jsonrpc the functions to expose\n    supports xml, json, xmlrpc, jsonrpc, amfrpc, rss, csv\n    """\n    return service()\n\n\n@auth.requires_login() \ndef api():\n    """\n    this is example of API with access control\n    WEB2PY provides Hypermedia API (Collection+JSON) Experimental\n    """\n    from gluon.contrib.hypermedia import Collection\n    rules = {\n        \'<tablename>\': {\'GET\':{},\'POST\':{},\'PUT\':{},\'DELETE\':{}},\n        }\n    return Collection(db).process(request,response,rules)\n\nresponse._vars=response._caller(updateBeaconStatus)\n'
p7
sS'snapshot'
p8
(dp9
S'exception'
p10
(dp11
S'__module__'
p12
S"'socket'"
p13
sS'__getslice__'
p14
S"<method-wrapper '__getslice__' of error object>"
p15
sS'__str__'
p16
S"<method-wrapper '__str__' of error object>"
p17
sS'__reduce__'
p18
S'<built-in method __reduce__ of error object>'
p19
sS'__dict__'
p20
S'{}'
p21
sS'__sizeof__'
p22
S'<built-in method __sizeof__ of error object>'
p23
sS'__weakref__'
p24
S'None'
p25
sS'__init__'
p26
S"<method-wrapper '__init__' of error object>"
p27
sS'__setattr__'
p28
S"<method-wrapper '__setattr__' of error object>"
p29
sS'__reduce_ex__'
p30
S'<built-in method __reduce_ex__ of error object>'
p31
sS'__new__'
p32
S'<built-in method __new__ of type object>'
p33
sS'errno'
p34
S'10060'
p35
sS'__format__'
p36
S'<built-in method __format__ of error object>'
p37
sS'__class__'
p38
S"<class 'socket.error'>"
p39
sS'filename'
p40
S'None'
p41
sS'__doc__'
p42
S'None'
p43
sS'__getitem__'
p44
S"<method-wrapper '__getitem__' of error object>"
p45
sS'__setstate__'
p46
S'<built-in method __setstate__ of error object>'
p47
sS'__getattribute__'
p48
S"<method-wrapper '__getattribute__' of error object>"
p49
sS'args'
p50
S"(10060, 'A connection attempt failed because the connecte...iled because connected host has failed to respond')"
p51
sS'__subclasshook__'
p52
S'<built-in method __subclasshook__ of type object>'
p53
sS'__unicode__'
p54
S'<built-in method __unicode__ of error object>'
p55
sS'strerror'
p56
S"'A connection attempt failed because the connecte...iled because connected host has failed to respond'"
p57
sS'__delattr__'
p58
S"<method-wrapper '__delattr__' of error object>"
p59
sS'__repr__'
p60
S"<method-wrapper '__repr__' of error object>"
p61
sS'__hash__'
p62
S"<method-wrapper '__hash__' of error object>"
p63
ssS'evalue'
p64
S'[Errno 10060] A connection attempt failed because the connected party did not properly respond after a period of time, or established connection failed because connected host has failed to respond'
p65
sS'request'
p66
cgluon.html
XML_unpickle
p67
(S's>g\x00\x00<div><table><tr><td style="font-weight:bold;vertical-align:top;">ajax</td><td style="vertical-align:top;">:</td><td><div>False</div></td></tr><tr><td style="font-weight:bold;vertical-align:top;">application</td><td style="vertical-align:top;">:</td><td><div>smartapp</div></td></tr><tr><td style="font-weight:bold;vertical-align:top;">args</td><td style="vertical-align:top;">:</td><td><div><table></table></div></td></tr><tr><td style="font-weight:bold;vertical-align:top;">cid</td><td style="vertical-align:top;">:</td><td><div>None</div></td></tr><tr><td style="font-weight:bold;vertical-align:top;">client</td><td style="vertical-align:top;">:</td><td><div>127.0.0.1</div></td></tr><tr><td style="font-weight:bold;vertical-align:top;">controller</td><td style="vertical-align:top;">:</td><td><div>default</div></td></tr><tr><td style="font-weight:bold;vertical-align:top;">cookies</td><td style="vertical-align:top;">:</td><td><div><table><tr><td style="font-weight:bold;vertical-align:top;">session_id_admin</td><td style="vertical-align:top;">:</td><td><div>127.0.0.1-1f03a160-ff3e-481d-9d92-ad6e3e34045e<table><tr><td style="font-weight:bold;vertical-align:top;">comment</td><td style="vertical-align:top;">:</td><td><div></div></td></tr><tr><td style="font-weight:bold;vertical-align:top;">domain</td><td style="vertical-align:top;">:</td><td><div></div></td></tr><tr><td style="font-weight:bold;vertical-align:top;">expires</td><td style="vertical-align:top;">:</td><td><div></div></td></tr><tr><td style="font-weight:bold;vertical-align:top;">httponly</td><td style="vertical-align:top;">:</td><td><div></div></td></tr><tr><td style="font-weight:bold;vertical-align:top;">max-age</td><td style="vertical-align:top;">:</td><td><div></div></td></tr><tr><td style="font-weight:bold;vertical-align:top;">path</td><td style="vertical-align:top;">:</td><td><div></div></td></tr><tr><td style="font-weight:bold;vertical-align:top;">secure</td><td style="vertical-align:top;">:</td><td><div></div></td></tr><tr><td style="font-weight:bold;vertical-align:top;">version</td><td style="vertical-align:top;">:</td><td><div></div></td></tr></table></div></td></tr><tr><td style="font-weight:bold;vertical-align:top;">session_id_smartapp</td><td style="vertical-align:top;">:</td><td><div>127.0.0.1-71a174d4-dd42-4c92-a212-5ff3f9acb01f<table><tr><td style="font-weight:bold;vertical-align:top;">comment</td><td style="vertical-align:top;">:</td><td><div></div></td></tr><tr><td style="font-weight:bold;vertical-align:top;">domain</td><td style="vertical-align:top;">:</td><td><div></div></td></tr><tr><td style="font-weight:bold;vertical-align:top;">expires</td><td style="vertical-align:top;">:</td><td><div></div></td></tr><tr><td style="font-weight:bold;vertical-align:top;">httponly</td><td style="vertical-align:top;">:</td><td><div></div></td></tr><tr><td style="font-weight:bold;vertical-align:top;">max-age</td><td style="vertical-align:top;">:</td><td><div></div></td></tr><tr><td style="font-weight:bold;vertical-align:top;">path</td><td style="vertical-align:top;">:</td><td><div></div></td></tr><tr><td style="font-weight:bold;vertical-align:top;">secure</td><td style="vertical-align:top;">:</td><td><div></div></td></tr><tr><td style="font-weight:bold;vertical-align:top;">version</td><td style="vertical-align:top;">:</td><td><div></div></td></tr></table></div></td></tr><tr><td style="font-weight:bold;vertical-align:top;">session_id_smartappp</td><td style="vertical-align:top;">:</td><td><div>127.0.0.1-6baa7ae4-ee53-4cc4-81d8-648381209c16<table><tr><td style="font-weight:bold;vertical-align:top;">comment</td><td style="vertical-align:top;">:</td><td><div></div></td></tr><tr><td style="font-weight:bold;vertical-align:top;">domain</td><td style="vertical-align:top;">:</td><td><div></div></td></tr><tr><td style="font-weight:bold;vertical-align:top;">expires</td><td style="vertical-align:top;">:</td><td><div></div></td></tr><tr><td style="font-weight:bold;vertical-align:top;">httponly</td><td style="vertical-align:top;">:</td><td><div></div></td></tr><tr><td style="font-weight:bold;vertical-align:top;">max-age</td><td style="vertical-align:top;">:</td><td><div></div></td></tr><tr><td style="font-weight:bold;vertical-align:top;">path</td><td style="vertical-align:top;">:</td><td><div></div></td></tr><tr><td style="font-weight:bold;vertical-align:top;">secure</td><td style="vertical-align:top;">:</td><td><div></div></td></tr><tr><td style="font-weight:bold;vertical-align:top;">version</td><td style="vertical-align:top;">:</td><td><div></div></td></tr></table></div></td></tr><tr><td style="font-weight:bold;vertical-align:top;">session_id_welcome</td><td style="vertical-align:top;">:</td><td><div>127.0.0.1-1cecaa83-4c1b-4ed1-93dd-2d9f75ba3e26<table><tr><td style="font-weight:bold;vertical-align:top;">comment</td><td style="vertical-align:top;">:</td><td><div></div></td></tr><tr><td style="font-weight:bold;vertical-align:top;">domain</td><td style="vertical-align:top;">:</td><td><div></div></td></tr><tr><td style="font-weight:bold;vertical-align:top;">expires</td><td style="vertical-align:top;">:</td><td><div></div></td></tr><tr><td style="font-weight:bold;vertical-align:top;">httponly</td><td style="vertical-align:top;">:</td><td><div></div></td></tr><tr><td style="font-weight:bold;vertical-align:top;">max-age</td><td style="vertical-align:top;">:</td><td><div></div></td></tr><tr><td style="font-weight:bold;vertical-align:top;">path</td><td style="vertical-align:top;">:</td><td><div></div></td></tr><tr><td style="font-weight:bold;vertical-align:top;">secure</td><td style="vertical-align:top;">:</td><td><div></div></td></tr><tr><td style="font-weight:bold;vertical-align:top;">version</td><td style="vertical-align:top;">:</td><td><div></div></td></tr></table></div></td></tr></table></div></td></tr><tr><td style="font-weight:bold;vertical-align:top;">env</td><td style="vertical-align:top;">:</td><td><div><table><tr><td style="font-weight:bold;vertical-align:top;">HTTP_ACCEPT</td><td style="vertical-align:top;">:</td><td><div>text/html,application/xhtml+xml,application/xml;q=0.9,image/webp,*/*;q=0.8</div></td></tr><tr><td style="font-weight:bold;vertical-align:top;">HTTP_ACCEPT_ENCODING</td><td style="vertical-align:top;">:</td><td><div>gzip, deflate, sdch</div></td></tr><tr><td style="font-weight:bold;vertical-align:top;">HTTP_ACCEPT_LANGUAGE</td><td style="vertical-align:top;">:</td><td><div>en-US,en;q=0.8</div></td></tr><tr><td style="font-weight:bold;vertical-align:top;">HTTP_CACHE_CONTROL</td><td style="vertical-align:top;">:</td><td><div>max-age=0</div></td></tr><tr><td style="font-weight:bold;vertical-align:top;">HTTP_CONNECTION</td><td style="vertical-align:top;">:</td><td><div>keep-alive</div></td></tr><tr><td style="font-weight:bold;vertical-align:top;">HTTP_COOKIE</td><td style="vertical-align:top;">:</td><td><div>session_id_smartappp=127.0.0.1-6baa7ae4-ee53-4cc4-81d8-648381209c16; session_id_welcome=127.0.0.1-1cecaa83-4c1b-4ed1-93dd-2d9f75ba3e26; session_id_admin=127.0.0.1-1f03a160-ff3e-481d-9d92-ad6e3e34045e; session_id_smartapp=127.0.0.1-71a174d4-dd42-4c92-a212-5ff3f9acb01f</div></td></tr><tr><td style="font-weight:bold;vertical-align:top;">HTTP_HOST</td><td style="vertical-align:top;">:</td><td><div>127.0.0.1:8000</div></td></tr><tr><td style="font-weight:bold;vertical-align:top;">HTTP_USER_AGENT</td><td style="vertical-align:top;">:</td><td><div>Mozilla/5.0 (Windows NT 6.3; WOW64) AppleWebKit/537.36 (KHTML, like Gecko) Chrome/42.0.2311.135 Safari/537.36</div></td></tr><tr><td style="font-weight:bold;vertical-align:top;">PATH_INFO</td><td style="vertical-align:top;">:</td><td><div>/smartapp/default/updateBeaconStatus</div></td></tr><tr><td style="font-weight:bold;vertical-align:top;">QUERY_STRING</td><td style="vertical-align:top;">:</td><td><div>uemail=abc&amp;password=123&amp;b_f_id=C65J-UZ8C5</div></td></tr><tr><td style="font-weight:bold;vertical-align:top;">REMOTE_ADDR</td><td style="vertical-align:top;">:</td><td><div>127.0.0.1</div></td></tr><tr><td style="font-weight:bold;vertical-align:top;">REMOTE_PORT</td><td style="vertical-align:top;">:</td><td><div>52750</div></td></tr><tr><td style="font-weight:bold;vertical-align:top;">REQUEST_METHOD</td><td style="vertical-align:top;">:</td><td><div>GET</div></td></tr><tr><td style="font-weight:bold;vertical-align:top;">SCRIPT_NAME</td><td style="vertical-align:top;">:</td><td><div></div></td></tr><tr><td style="font-weight:bold;vertical-align:top;">SERVER_NAME</td><td style="vertical-align:top;">:</td><td><div>mansi</div></td></tr><tr><td style="font-weight:bold;vertical-align:top;">SERVER_PORT</td><td style="vertical-align:top;">:</td><td><div>8000</div></td></tr><tr><td style="font-weight:bold;vertical-align:top;">SERVER_PROTOCOL</td><td style="vertical-align:top;">:</td><td><div>HTTP/1.1</div></td></tr><tr><td style="font-weight:bold;vertical-align:top;">SERVER_SOFTWARE</td><td style="vertical-align:top;">:</td><td><div>Rocket 1.2.6</div></td></tr><tr><td style="font-weight:bold;vertical-align:top;">app_folders</td><td style="vertical-align:top;">:</td><td><div>set([&#x27;C:\\\\Users\\\\mansi\\\\Downloads\\\\web2py_src\\\\web2py\\\\applications\\\\admin\\\\&#x27;, &#x27;C:\\\\Users\\\\mansi\\\\Downloads\\\\web2py_src\\\\web2py\\\\applications\\\\welcome\\\\&#x27;, &#x27;C:\\\\Users\\\\mansi\\\\Downloads\\\\web2py_src\\\\web2py\\\\applications\\\\smartapp\\\\&#x27;])</div></td></tr><tr><td style="font-weight:bold;vertical-align:top;">applications_parent</td><td style="vertical-align:top;">:</td><td><div>C:\\Users\\mansi\\Downloads\\web2py_src\\web2py</div></td></tr><tr><td style="font-weight:bold;vertical-align:top;">cmd_args</td><td style="vertical-align:top;">:</td><td><div><table></table></div></td></tr><tr><td style="font-weight:bold;vertical-align:top;">cmd_options</td><td style="vertical-align:top;">:</td><td><div>&lt;Values at 0x2ee4328: {&#x27;verbose&#x27;: False, &#x27;ip&#x27;: &#x27;127.0.0.1&#x27;, &#x27;debuglevel&#x27;: 30, &#x27;with_scheduler&#x27;: False, &#x27;ips&#x27;: [&#x27;2001:0:5ef5:79fb:188d:c6b:3f57:fff2&#x27;, &#x27;fe80::202b:cfb2:565e:a5d0%4&#x27;, &#x27;fe80::188d:c6b:3f57:fff2%7&#x27;, &#x27;192.168.0.13&#x27;, &#x27;2601:9:500:4620:202b:cfb2:565e:a5d0&#x27;, &#x27;2601:9:500:4620:e5bd:2d44:e26:2c3f&#x27;, &#x27;2601:9:500:4620:3623:87ff:fec5:9727&#x27;], &#x27;shutdown_timeout&#x27;: 5, &#x27;taskbar&#x27;: False, &#x27;with_coverage&#x27;: False, &#x27;scheduler_groups&#x27;: None, &#x27;port&#x27;: 8000, &#x27;maxthreads&#x27;: None, &#x27;softcron&#x27;: False, &#x27;server_name&#x27;: &#x27;mansi&#x27;, &#x27;bpython&#x27;: False, &#x27;nogui&#x27;: False, &#x27;pid_filename&#x27;: &#x27;httpserver.pid&#x27;, &#x27;extcron&#x27;: False, &#x27;runcron&#x27;: False, &#x27;run_system_tests&#x27;: False, &#x27;test&#x27;: None, &#x27;folder&#x27;: &#x27;C:\\\\Users\\\\mansi\\\\Downloads\\\\web2py_src\\\\web2py&#x27;, &#x27;config&#x27;: &#x27;&#x27;, &#x27;minthreads&#x27;: None, &#x27;shell&#x27;: None, &#x27;run&#x27;: &#x27;&#x27;, &#x27;log_filename&#x27;: &#x27;httpserver.log&#x27;, &#x27;profiler_dir&#x27;: None, &#x27;args&#x27;: [&#x27;&#x27;], &#x27;socket_timeout&#x27;: 5, &#x27;ssl_ca_certificate&#x27;: None, &#x27;scheduler&#x27;: None, &#x27;interfaces&#x27;: None, &#x27;ssl_private_key&#x27;: &#x27;&#x27;, &#x27;gae&#x27;: None, &#x27;password&#x27;: &#x27;&lt;ask&gt;&#x27;, &#x27;request_queue_size&#x27;: 5, &#x27;ssl_certificate&#x27;: &#x27;&#x27;, &#x27;cronjob&#x27;: False, &#x27;numthreads&#x27;: None, &#x27;quiet&#x27;: False, &#x27;import_models&#x27;: False, &#x27;timeout&#x27;: 10, &#x27;plain&#x27;: False, &#x27;nobanner&#x27;: False}&gt;</div></td></tr><tr><td style="font-weight:bold;vertical-align:top;">db_sessions</td><td style="vertical-align:top;">:</td><td><div>set([])</div></td></tr><tr><td style="font-weight:bold;vertical-align:top;">debugging</td><td style="vertical-align:top;">:</td><td><div>True</div></td></tr><tr><td style="font-weight:bold;vertical-align:top;">gluon_parent</td><td style="vertical-align:top;">:</td><td><div>C:\\Users\\mansi\\Downloads\\web2py_src\\web2py</div></td></tr><tr><td style="font-weight:bold;vertical-align:top;">http_accept</td><td style="vertical-align:top;">:</td><td><div>text/html,application/xhtml+xml,application/xml;q=0.9,image/webp,*/*;q=0.8</div></td></tr><tr><td style="font-weight:bold;vertical-align:top;">http_accept_encoding</td><td style="vertical-align:top;">:</td><td><div>gzip, deflate, sdch</div></td></tr><tr><td style="font-weight:bold;vertical-align:top;">http_accept_language</td><td style="vertical-align:top;">:</td><td><div>en-US,en;q=0.8</div></td></tr><tr><td style="font-weight:bold;vertical-align:top;">http_cache_control</td><td style="vertical-align:top;">:</td><td><div>max-age=0</div></td></tr><tr><td style="font-weight:bold;vertical-align:top;">http_connection</td><td style="vertical-align:top;">:</td><td><div>keep-alive</div></td></tr><tr><td style="font-weight:bold;vertical-align:top;">http_cookie</td><td style="vertical-align:top;">:</td><td><div>session_id_smartappp=127.0.0.1-6baa7ae4-ee53-4cc4-81d8-648381209c16; session_id_welcome=127.0.0.1-1cecaa83-4c1b-4ed1-93dd-2d9f75ba3e26; session_id_admin=127.0.0.1-1f03a160-ff3e-481d-9d92-ad6e3e34045e; session_id_smartapp=127.0.0.1-71a174d4-dd42-4c92-a212-5ff3f9acb01f</div></td></tr><tr><td style="font-weight:bold;vertical-align:top;">http_host</td><td style="vertical-align:top;">:</td><td><div>127.0.0.1:8000</div></td></tr><tr><td style="font-weight:bold;vertical-align:top;">http_user_agent</td><td style="vertical-align:top;">:</td><td><div>Mozilla/5.0 (Windows NT 6.3; WOW64) AppleWebKit/537.36 (KHTML, like Gecko) Chrome/42.0.2311.135 Safari/537.36</div></td></tr><tr><td style="font-weight:bold;vertical-align:top;">is_jython</td><td style="vertical-align:top;">:</td><td><div>False</div></td></tr><tr><td style="font-weight:bold;vertical-align:top;">is_pypy</td><td style="vertical-align:top;">:</td><td><div>False</div></td></tr><tr><td style="font-weight:bold;vertical-align:top;">is_source</td><td style="vertical-align:top;">:</td><td><div>True</div></td></tr><tr><td style="font-weight:bold;vertical-align:top;">local_hosts</td><td style="vertical-align:top;">:</td><td><div><table><tr><td><div>2001:0:5ef5:79fb:188d:c6b:3f57:fff2</div></td></tr><tr><td><div>fe80::202b:cfb2:565e:a5d0%4</div></td></tr><tr><td><div>::ffff:127.0.0.1</div></td></tr><tr><td><div>::1</div></td></tr><tr><td><div>fe80::188d:c6b:3f57:fff2%7</div></td></tr><tr><td><div>127.0.0.1</div></td></tr><tr><td><div>192.168.0.13</div></td></tr><tr><td><div>mansi</div></td></tr><tr><td><div>2601:9:500:4620:202b:cfb2:565e:a5d0</div></td></tr><tr><td><div>2601:9:500:4620:e5bd:2d44:e26:2c3f</div></td></tr><tr><td><div>2601:9:500:4620:3623:87ff:fec5:9727</div></td></tr></table></div></td></tr><tr><td style="font-weight:bold;vertical-align:top;">path_info</td><td style="vertical-align:top;">:</td><td><div>/smartapp/default/updateBeaconStatus</div></td></tr><tr><td style="font-weight:bold;vertical-align:top;">query_string</td><td style="vertical-align:top;">:</td><td><div>uemail=abc&amp;password=123&amp;b_f_id=C65J-UZ8C5</div></td></tr><tr><td style="font-weight:bold;vertical-align:top;">remote_addr</td><td style="vertical-align:top;">:</td><td><div>127.0.0.1</div></td></tr><tr><td style="font-weight:bold;vertical-align:top;">remote_port</td><td style="vertical-align:top;">:</td><td><div>52750</div></td></tr><tr><td style="font-weight:bold;vertical-align:top;">request_method</td><td style="vertical-align:top;">:</td><td><div>GET</div></td></tr><tr><td style="font-weight:bold;vertical-align:top;">request_uri</td><td style="vertical-align:top;">:</td><td><div>/smartapp/default/updateBeaconStatus?uemail=abc&amp;password=123&amp;b_f_id=C65J-UZ8C5</div></td></tr><tr><td style="font-weight:bold;vertical-align:top;">script_name</td><td style="vertical-align:top;">:</td><td><div></div></td></tr><tr><td style="font-weight:bold;vertical-align:top;">server_name</td><td style="vertical-align:top;">:</td><td><div>mansi</div></td></tr><tr><td style="font-weight:bold;vertical-align:top;">server_port</td><td style="vertical-align:top;">:</td><td><div>8000</div></td></tr><tr><td style="font-weight:bold;vertical-align:top;">server_protocol</td><td style="vertical-align:top;">:</td><td><div>HTTP/1.1</div></td></tr><tr><td style="font-weight:bold;vertical-align:top;">server_software</td><td style="vertical-align:top;">:</td><td><div>Rocket 1.2.6</div></td></tr><tr><td style="font-weight:bold;vertical-align:top;">web2py_path</td><td style="vertical-align:top;">:</td><td><div>C:\\Users\\mansi\\Downloads\\web2py_src\\web2py</div></td></tr><tr><td style="font-weight:bold;vertical-align:top;">web2py_version</td><td style="vertical-align:top;">:</td><td><div>2.9.12-stable+timestamp.2015.01.17.06.11.03</div></td></tr><tr><td style="font-weight:bold;vertical-align:top;">wsgi.errors</td><td style="vertical-align:top;">:</td><td><div>&lt;open file &#x27;&lt;stderr&gt;&#x27;, mode &#x27;w&#x27; at 0x01D0D0D0&gt;</div></td></tr><tr><td style="font-weight:bold;vertical-align:top;">wsgi.file_wrapper</td><td style="vertical-align:top;">:</td><td><div>&lt;class wsgiref.util.FileWrapper at 0x01F99180&gt;</div></td></tr><tr><td style="font-weight:bold;vertical-align:top;">wsgi.input</td><td style="vertical-align:top;">:</td><td><div>&lt;socket._fileobject object at 0x08EE2370&gt;</div></td></tr><tr><td style="font-weight:bold;vertical-align:top;">wsgi.multiprocess</td><td style="vertical-align:top;">:</td><td><div>False</div></td></tr><tr><td style="font-weight:bold;vertical-align:top;">wsgi.multithread</td><td style="vertical-align:top;">:</td><td><div>True</div></td></tr><tr><td style="font-weight:bold;vertical-align:top;">wsgi.run_once</td><td style="vertical-align:top;">:</td><td><div>False</div></td></tr><tr><td style="font-weight:bold;vertical-align:top;">wsgi.url_scheme</td><td style="vertical-align:top;">:</td><td><div>http</div></td></tr><tr><td style="font-weight:bold;vertical-align:top;">wsgi.version</td><td style="vertical-align:top;">:</td><td><div><table><tr><td><div>1</div></td></tr><tr><td><div>0</div></td></tr></table></div></td></tr><tr><td style="font-weight:bold;vertical-align:top;">wsgi_errors</td><td style="vertical-align:top;">:</td><td><div>&lt;open file &#x27;&lt;stderr&gt;&#x27;, mode &#x27;w&#x27; at 0x01D0D0D0&gt;</div></td></tr><tr><td style="font-weight:bold;vertical-align:top;">wsgi_file_wrapper</td><td style="vertical-align:top;">:</td><td><div>&lt;class wsgiref.util.FileWrapper at 0x01F99180&gt;</div></td></tr><tr><td style="font-weight:bold;vertical-align:top;">wsgi_input</td><td style="vertical-align:top;">:</td><td><div>&lt;socket._fileobject object at 0x08EE2370&gt;</div></td></tr><tr><td style="font-weight:bold;vertical-align:top;">wsgi_multiprocess</td><td style="vertical-align:top;">:</td><td><div>False</div></td></tr><tr><td style="font-weight:bold;vertical-align:top;">wsgi_multithread</td><td style="vertical-align:top;">:</td><td><div>True</div></td></tr><tr><td style="font-weight:bold;vertical-align:top;">wsgi_run_once</td><td style="vertical-align:top;">:</td><td><div>False</div></td></tr><tr><td style="font-weight:bold;vertical-align:top;">wsgi_url_scheme</td><td style="vertical-align:top;">:</td><td><div>http</div></td></tr><tr><td style="font-weight:bold;vertical-align:top;">wsgi_version</td><td style="vertical-align:top;">:</td><td><div><table><tr><td><div>1</div></td></tr><tr><td><div>0</div></td></tr></table></div></td></tr></table></div></td></tr><tr><td style="font-weight:bold;vertical-align:top;">extension</td><td style="vertical-align:top;">:</td><td><div>html</div></td></tr><tr><td style="font-weight:bold;vertical-align:top;">folder</td><td style="vertical-align:top;">:</td><td><div>C:\\Users\\mansi\\Downloads\\web2py_src\\web2py\\applications\\smartapp\\</div></td></tr><tr><td style="font-weight:bold;vertical-align:top;">function</td><td style="vertical-align:top;">:</td><td><div>updateBeaconStatus</div></td></tr><tr><td style="font-weight:bold;vertical-align:top;">global_settings</td><td style="vertical-align:top;">:</td><td><div><table><tr><td style="font-weight:bold;vertical-align:top;">app_folders</td><td style="vertical-align:top;">:</td><td><div>set([&#x27;C:\\\\Users\\\\mansi\\\\Downloads\\\\web2py_src\\\\web2py\\\\applications\\\\admin\\\\&#x27;, &#x27;C:\\\\Users\\\\mansi\\\\Downloads\\\\web2py_src\\\\web2py\\\\applications\\\\welcome\\\\&#x27;, &#x27;C:\\\\Users\\\\mansi\\\\Downloads\\\\web2py_src\\\\web2py\\\\applications\\\\smartapp\\\\&#x27;])</div></td></tr><tr><td style="font-weight:bold;vertical-align:top;">applications_parent</td><td style="vertical-align:top;">:</td><td><div>C:\\Users\\mansi\\Downloads\\web2py_src\\web2py</div></td></tr><tr><td style="font-weight:bold;vertical-align:top;">cmd_args</td><td style="vertical-align:top;">:</td><td><div><table></table></div></td></tr><tr><td style="font-weight:bold;vertical-align:top;">cmd_options</td><td style="vertical-align:top;">:</td><td><div>&lt;Values at 0x2ee4328: {&#x27;verbose&#x27;: False, &#x27;ip&#x27;: &#x27;127.0.0.1&#x27;, &#x27;debuglevel&#x27;: 30, &#x27;with_scheduler&#x27;: False, &#x27;ips&#x27;: [&#x27;2001:0:5ef5:79fb:188d:c6b:3f57:fff2&#x27;, &#x27;fe80::202b:cfb2:565e:a5d0%4&#x27;, &#x27;fe80::188d:c6b:3f57:fff2%7&#x27;, &#x27;192.168.0.13&#x27;, &#x27;2601:9:500:4620:202b:cfb2:565e:a5d0&#x27;, &#x27;2601:9:500:4620:e5bd:2d44:e26:2c3f&#x27;, &#x27;2601:9:500:4620:3623:87ff:fec5:9727&#x27;], &#x27;shutdown_timeout&#x27;: 5, &#x27;taskbar&#x27;: False, &#x27;with_coverage&#x27;: False, &#x27;scheduler_groups&#x27;: None, &#x27;port&#x27;: 8000, &#x27;maxthreads&#x27;: None, &#x27;softcron&#x27;: False, &#x27;server_name&#x27;: &#x27;mansi&#x27;, &#x27;bpython&#x27;: False, &#x27;nogui&#x27;: False, &#x27;pid_filename&#x27;: &#x27;httpserver.pid&#x27;, &#x27;extcron&#x27;: False, &#x27;runcron&#x27;: False, &#x27;run_system_tests&#x27;: False, &#x27;test&#x27;: None, &#x27;folder&#x27;: &#x27;C:\\\\Users\\\\mansi\\\\Downloads\\\\web2py_src\\\\web2py&#x27;, &#x27;config&#x27;: &#x27;&#x27;, &#x27;minthreads&#x27;: None, &#x27;shell&#x27;: None, &#x27;run&#x27;: &#x27;&#x27;, &#x27;log_filename&#x27;: &#x27;httpserver.log&#x27;, &#x27;profiler_dir&#x27;: None, &#x27;args&#x27;: [&#x27;&#x27;], &#x27;socket_timeout&#x27;: 5, &#x27;ssl_ca_certificate&#x27;: None, &#x27;scheduler&#x27;: None, &#x27;interfaces&#x27;: None, &#x27;ssl_private_key&#x27;: &#x27;&#x27;, &#x27;gae&#x27;: None, &#x27;password&#x27;: &#x27;&lt;ask&gt;&#x27;, &#x27;request_queue_size&#x27;: 5, &#x27;ssl_certificate&#x27;: &#x27;&#x27;, &#x27;cronjob&#x27;: False, &#x27;numthreads&#x27;: None, &#x27;quiet&#x27;: False, &#x27;import_models&#x27;: False, &#x27;timeout&#x27;: 10, &#x27;plain&#x27;: False, &#x27;nobanner&#x27;: False}&gt;</div></td></tr><tr><td style="font-weight:bold;vertical-align:top;">db_sessions</td><td style="vertical-align:top;">:</td><td><div>set([])</div></td></tr><tr><td style="font-weight:bold;vertical-align:top;">debugging</td><td style="vertical-align:top;">:</td><td><div>True</div></td></tr><tr><td style="font-weight:bold;vertical-align:top;">gluon_parent</td><td style="vertical-align:top;">:</td><td><div>C:\\Users\\mansi\\Downloads\\web2py_src\\web2py</div></td></tr><tr><td style="font-weight:bold;vertical-align:top;">is_jython</td><td style="vertical-align:top;">:</td><td><div>False</div></td></tr><tr><td style="font-weight:bold;vertical-align:top;">is_pypy</td><td style="vertical-align:top;">:</td><td><div>False</div></td></tr><tr><td style="font-weight:bold;vertical-align:top;">is_source</td><td style="vertical-align:top;">:</td><td><div>True</div></td></tr><tr><td style="font-weight:bold;vertical-align:top;">local_hosts</td><td style="vertical-align:top;">:</td><td><div><table><tr><td><div>2001:0:5ef5:79fb:188d:c6b:3f57:fff2</div></td></tr><tr><td><div>fe80::202b:cfb2:565e:a5d0%4</div></td></tr><tr><td><div>::ffff:127.0.0.1</div></td></tr><tr><td><div>::1</div></td></tr><tr><td><div>fe80::188d:c6b:3f57:fff2%7</div></td></tr><tr><td><div>127.0.0.1</div></td></tr><tr><td><div>192.168.0.13</div></td></tr><tr><td><div>mansi</div></td></tr><tr><td><div>2601:9:500:4620:202b:cfb2:565e:a5d0</div></td></tr><tr><td><div>2601:9:500:4620:e5bd:2d44:e26:2c3f</div></td></tr><tr><td><div>2601:9:500:4620:3623:87ff:fec5:9727</div></td></tr></table></div></td></tr><tr><td style="font-weight:bold;vertical-align:top;">web2py_version</td><td style="vertical-align:top;">:</td><td><div>2.9.12-stable+timestamp.2015.01.17.06.11.03</div></td></tr></table></div></td></tr><tr><td style="font-weight:bold;vertical-align:top;">is_https</td><td style="vertical-align:top;">:</td><td><div>False</div></td></tr><tr><td style="font-weight:bold;vertical-align:top;">is_local</td><td style="vertical-align:top;">:</td><td><div>True</div></td></tr><tr><td style="font-weight:bold;vertical-align:top;">is_restful</td><td style="vertical-align:top;">:</td><td><div>False</div></td></tr><tr><td style="font-weight:bold;vertical-align:top;">is_sheduler</td><td style="vertical-align:top;">:</td><td><div>None</div></td></tr><tr><td style="font-weight:bold;vertical-align:top;">is_shell</td><td style="vertical-align:top;">:</td><td><div>None</div></td></tr><tr><td style="font-weight:bold;vertical-align:top;">now</td><td style="vertical-align:top;">:</td><td><div>datetime.datetime(2015, 5, 7, 16, 30, 3, 136000)</div></td></tr><tr><td style="font-weight:bold;vertical-align:top;">raw_args</td><td style="vertical-align:top;">:</td><td><div></div></td></tr><tr><td style="font-weight:bold;vertical-align:top;">raw_extension</td><td style="vertical-align:top;">:</td><td><div>None</div></td></tr><tr><td style="font-weight:bold;vertical-align:top;">url</td><td style="vertical-align:top;">:</td><td><div>/smartapp/default/updateBeaconStatus</div></td></tr><tr><td style="font-weight:bold;vertical-align:top;">utcnow</td><td style="vertical-align:top;">:</td><td><div>datetime.datetime(2015, 5, 7, 22, 30, 3, 136000)</div></td></tr><tr><td style="font-weight:bold;vertical-align:top;">uuid</td><td style="vertical-align:top;">:</td><td><div>smartapp/127.0.0.1.2015-05-07.16-30-03.6ef02cfa-ac1e-431e-8d8e-a343c5aef15c</div></td></tr><tr><td style="font-weight:bold;vertical-align:top;">wsgi</td><td style="vertical-align:top;">:</td><td><div>&lt;gluon.main.LazyWSGI object at 0x08F7A9D0&gt;</div></td></tr></table></div>'
tRp68
sS'frames'
p69
(lp70
(dp71
S'file'
p72
S'C:\\Users\\mansi\\Downloads\\web2py_src\\web2py\\gluon\\restricted.py'
p73
sS'dump'
p74
(dp75
S'environment'
p76
S"{'A': <class 'gluon.html.A'>, 'ANY_OF': <class 'gluon.validators.ANY_OF'>, 'ASSIGNJS': <function ASSIGNJS>, 'Auth': <class 'gluon.tools.Auth'>, 'B': <class 'gluon.html.B'>, 'BEAUTIFY': <class 'gluon.html.BEAUTIFY'>, 'BODY': <class 'gluon.html.BODY'>, 'BR': <class 'gluon.html.BR'>, 'BUTTON': <class 'gluon.html.BUTTON'>, 'CAT': <class 'gluon.html.CAT'>, ...}"
p77
sS'ccode'
p78
S'<code object <module> at 09503608, file "C:\\User...ations\\smartapp\\controllers/default.py", line 11>'
p79
ssS'lnum'
p80
I224
sS'lines'
p81
(dp82
I224
S'        exec ccode in environment'
p83
sI225
S'    except HTTP:'
p84
sI226
S'        raise'
p85
sI227
S'    except RestrictedError:'
p86
sI228
S'        # do not encapsulate (obfuscate) the original RestrictedError'
p87
sI219
S'    try:'
p88
sI220
S'        if isinstance(code, types.CodeType):'
p89
sI221
S'            ccode = code'
p90
sI222
S'        else:'
p91
sI223
S'            ccode = compile2(code, layer)'
p92
ssS'call'
p93
S"(code='# -*- coding: utf-8 -*-\\n# this file is released ...ponse._vars=response._caller(updateBeaconStatus)\\n', environment={'A': <class 'gluon.html.A'>, 'ANY_OF': <class 'gluon.validators.ANY_OF'>, 'ASSIGNJS': <function ASSIGNJS>, 'Auth': <class 'gluon.tools.Auth'>, 'B': <class 'gluon.html.B'>, 'BEAUTIFY': <class 'gluon.html.BEAUTIFY'>, 'BODY': <class 'gluon.html.BODY'>, 'BR': <class 'gluon.html.BR'>, 'BUTTON': <class 'gluon.html.BUTTON'>, 'CAT': <class 'gluon.html.CAT'>, ...}, layer=r'C:\\Users\\mansi\\Downloads\\web2py_src\\web2py\\applications\\smartapp\\controllers/default.py')"
p94
sS'func'
p95
S'restricted'
p96
sa(dp97
g72
S'C:\\Users\\mansi\\Downloads\\web2py_src\\web2py\\applications\\smartapp\\controllers\\default.py'
p98
sg74
(dp99
sg80
I428
sg81
(dp100
I417
S'def api():'
p101
sI418
S'    """'
p102
sI419
S'    this is example of API with access control'
p103
sI420
S'    WEB2PY provides Hypermedia API (Collection+JSON) Experimental'
p104
sI421
S'    """'
p105
sI422
S'    from gluon.contrib.hypermedia import Collection'
p106
sI423
S'    rules = {'
p107
sI424
S"        '<tablename>': {'GET':{},'POST':{},'PUT':{},'DELETE':{}},"
p108
sI425
S'        }'
p109
sI426
S'    return Collection(db).process(request,response,rules)'
p110
ssg93
S'()'
p111
sg95
S'<module>'
p112
sa(dp113
g72
S'C:\\Users\\mansi\\Downloads\\web2py_src\\web2py\\gluon\\globals.py'
p114
sg74
(dp115
S'self'
p116
S'undefined'
p117
sS'f'
S'<function updateBeaconStatus>'
p118
ssg80
I393
sg81
(dp119
I388
S"        self.flash = ''            # used by the default view layout"
p120
sI389
S'        self.meta = Storage()      # used by web2py_ajax.html'
p121
sI390
S'        self.menu = []             # used by the default view layout'
p122
sI391
S'        self.files = []            # used by web2py_ajax.html'
p123
sI392
S'        self._vars = None'
p124
sI393
S'        self._caller = lambda f: f()'
p125
sI394
S'        self._view_environment = None'
p126
sI395
S'        self._custom_commit = None'
p127
sI396
S'        self._custom_rollback = None'
p128
sI397
S"        self.generic_patterns = ['*']"
p129
ssg93
S'(f=<function updateBeaconStatus>)'
p130
sg95
S'<lambda>'
p131
sa(dp132
g72
S'C:\\Users\\mansi\\Downloads\\web2py_src\\web2py\\applications\\smartapp\\controllers\\default.py'
p133
sg74
(dp134
S'data_json'
p135
S'\'{"name": "John"}\''
p136
sS'headers'
p137
S"{'Authorization': 'Token token=f50ccc1aab3314434ae32dada87312cb', 'Content-Type': 'application/json'}"
p138
sS'connection'
p139
S'<httplib.HTTPConnection instance>'
p140
sS'connection.request'
p141
S'<bound method HTTPConnection.request of <httplib.HTTPConnection instance>>'
p142
ssg80
I328
sg81
(dp143
I323
S"             'Content-Type': 'application/json'"
p144
sI324
S'             }'
p145
sI325
S''
sI326
S"            connection =  httplib.HTTPConnection('1.2.3.4:1234')"
p146
sI327
S"            body_content = 'BODY CONTENT GOES HERE'"
p147
sI328
S"            connection.request('PUT', 'url',data_json,headers)"
p148
sI329
S'            result = connection.getresponse()'
p149
sI330
S''
sI331
S''
sI332
S'            if(result) :'
p150
ssg93
S'()'
p151
sg95
S'updateBeaconStatus'
p152
sa(dp153
g72
S'C:\\Python27\\lib\\httplib.py'
p154
sg74
(dp155
S'body'
p156
S'\'{"name": "John"}\''
p157
sS'self._send_request'
p158
S'<bound method HTTPConnection._send_request of <httplib.HTTPConnection instance>>'
p159
sS'url'
p160
S"'url'"
p161
sS'self'
p162
S'<httplib.HTTPConnection instance>'
p163
sS'headers'
p164
S"{'Authorization': 'Token token=f50ccc1aab3314434ae32dada87312cb', 'Content-Type': 'application/json'}"
p165
sS'method'
p166
S"'PUT'"
p167
ssg80
I1001
sg81
(dp168
I996
S'            raise CannotSendHeader()'
p169
sI997
S'        self._send_output(message_body)'
p170
sI998
S''
sI999
S'    def request(self, method, url, body=None, headers={}):'
p171
sI1000
S'        """Send a complete request to the server."""'
p172
sI1001
S'        self._send_request(method, url, body, headers)'
p173
sI1002
S''
sI1003
S'    def _set_content_length(self, body):'
p174
sI1004
S'        # Set the content-length based on the body.'
p175
sI1005
S'        thelen = None'
p176
ssg93
S'(self=<httplib.HTTPConnection instance>, method=\'PUT\', url=\'url\', body=\'{"name": "John"}\', headers={\'Authorization\': \'Token token=f50ccc1aab3314434ae32dada87312cb\', \'Content-Type\': \'application/json\'})'
p177
sg95
g66
sa(dp178
g72
S'C:\\Python27\\lib\\httplib.py'
p179
sg74
(dp180
S'self.endheaders'
p181
S'<bound method HTTPConnection.endheaders of <httplib.HTTPConnection instance>>'
p182
sS'body'
p183
S'\'{"name": "John"}\''
p184
sS'self'
p185
S'<httplib.HTTPConnection instance>'
p186
ssg80
I1035
sg81
(dp187
I1030
S''
sI1031
S"        if body is not None and 'content-length' not in header_names:"
p188
sI1032
S'            self._set_content_length(body)'
p189
sI1033
S'        for hdr, value in headers.iteritems():'
p190
sI1034
S'            self.putheader(hdr, value)'
p191
sI1035
S'        self.endheaders(body)'
p192
sI1036
S''
sI1037
S'    def getresponse(self, buffering=False):'
p193
sI1038
S'        "Get the response from the server."'
p194
sI1039
S''
ssg93
S'(self=<httplib.HTTPConnection instance>, method=\'PUT\', url=\'url\', body=\'{"name": "John"}\', headers={\'Authorization\': \'Token token=f50ccc1aab3314434ae32dada87312cb\', \'Content-Type\': \'application/json\'})'
p195
sg95
S'_send_request'
p196
sa(dp197
g72
S'C:\\Python27\\lib\\httplib.py'
p198
sg74
(dp199
S'message_body'
p200
S'\'{"name": "John"}\''
p201
sS'self'
p202
S'<httplib.HTTPConnection instance>'
p203
sS'self._send_output'
p204
S'<bound method HTTPConnection._send_output of <httplib.HTTPConnection instance>>'
p205
ssg80
I997
sg81
(dp206
I992
S'        """'
p207
sI993
S'        if self.__state == _CS_REQ_STARTED:'
p208
sI994
S'            self.__state = _CS_REQ_SENT'
p209
sI995
S'        else:'
p210
sI996
S'            raise CannotSendHeader()'
p211
sI997
S'        self._send_output(message_body)'
p212
sI998
S''
sI999
S'    def request(self, method, url, body=None, headers={}):'
p213
sI1000
S'        """Send a complete request to the server."""'
p214
sI1001
S'        self._send_request(method, url, body, headers)'
p215
ssg93
S'(self=<httplib.HTTPConnection instance>, message_body=\'{"name": "John"}\')'
p216
sg95
S'endheaders'
p217
sa(dp218
g72
S'C:\\Python27\\lib\\httplib.py'
p219
sg74
(dp220
S'msg'
p221
S'\'PUT url HTTP/1.1\\r\\nHost: 1.2.3.4:1234\\r\\nAccept-Enc...ccc1aab3314434ae32dada87312cb\\r\\n\\r\\n{"name": "John"}\''
p222
sS'self'
p223
S'<httplib.HTTPConnection instance>'
p224
sS'self.send'
p225
S'<bound method HTTPConnection.send of <httplib.HTTPConnection instance>>'
p226
ssg80
I850
sg81
(dp227
I845
S'        # it will avoid performance problems caused by the interaction'
p228
sI846
S'        # between delayed ack and the Nagle algorithm.'
p229
sI847
S'        if isinstance(message_body, str):'
p230
sI848
S'            msg += message_body'
p231
sI849
S'            message_body = None'
p232
sI850
S'        self.send(msg)'
p233
sI851
S'        if message_body is not None:'
p234
sI852
S'            #message_body was not a string (i.e. it is a file) and'
p235
sI853
S'            #we must run the risk of Nagle'
p236
sI854
S'            self.send(message_body)'
p237
ssg93
S'(self=<httplib.HTTPConnection instance>, message_body=None)'
p238
sg95
S'_send_output'
p239
sa(dp240
g72
S'C:\\Python27\\lib\\httplib.py'
p241
sg74
(dp242
S'self'
p243
S'<httplib.HTTPConnection instance>'
p244
sS'self.connect'
p245
S'<bound method HTTPConnection.connect of <httplib.HTTPConnection instance>>'
p246
ssg80
I812
sg81
(dp247
I807
S''
sI808
S'    def send(self, data):'
p248
sI809
S'        """Send `data\' to the server."""'
p249
sI810
S'        if self.sock is None:'
p250
sI811
S'            if self.auto_open:'
p251
sI812
S'                self.connect()'
p252
sI813
S'            else:'
p253
sI814
S'                raise NotConnected()'
p254
sI815
S''
sI816
S'        if self.debuglevel > 0:'
p255
ssg93
S'(self=<httplib.HTTPConnection instance>, data=\'PUT url HTTP/1.1\\r\\nHost: 1.2.3.4:1234\\r\\nAccept-Enc...ccc1aab3314434ae32dada87312cb\\r\\n\\r\\n{"name": "John"}\')'
p256
sg95
S'send'
p257
sa(dp258
g72
S'C:\\Python27\\lib\\httplib.py'
p259
sg74
(dp260
S'self.timeout'
p261
S'<object object>'
p262
sS'self'
p263
S'<httplib.HTTPConnection instance>'
p264
sS'self.source_address'
p265
S'None'
p266
ssg80
I793
sg81
(dp267
I788
S''
sI789
S''
sI790
S'    def connect(self):'
p268
sI791
S'        """Connect to the host and port specified in __init__."""'
p269
sI792
S'        self.sock = self._create_connection((self.host,self.port),'
p270
sI793
S'                                           self.timeout, self.source_address)'
p271
sI794
S''
sI795
S'        if self._tunnel_host:'
p272
sI796
S'            self._tunnel()'
p273
sI797
S''
ssg93
S'(self=<httplib.HTTPConnection instance>)'
p274
sg95
S'connect'
p275
sa(dp276
g72
S'C:\\Python27\\lib\\socket.py'
p277
sg74
(dp278
S'err'
p279
S"error(10060, 'A connection attempt failed becaus...ed because connected host has failed to respond')"
p280
ssg80
I571
sg81
(dp281
I564
S''
sI565
S'        except error as _:'
p282
sI566
S'            err = _'
p283
sI567
S'            if sock is not None:'
p284
sI568
S'                sock.close()'
p285
sI569
S''
sI570
S'    if err is not None:'
p286
sI571
S'        raise err'
p287
sI572
S'    else:'
p288
sI573
S'        raise error("getaddrinfo returns an empty list")'
p289
ssg93
S"(address=('1.2.3.4', 1234), timeout=<object object>, source_address=None)"
p290
sg95
S'create_connection'
p291
sasS'pyver'
p292
S'Python 2.7.9: C:\\Python27\\python.exe (prefix: C:\\Python27)'
p293
sS'session'
p294
g67
(S's7\x01\x00\x00<div><table><tr><td style="font-weight:bold;vertical-align:top;">last_orderby</td><td style="vertical-align:top;">:</td><td><div>None</div></td></tr><tr><td style="font-weight:bold;vertical-align:top;">last_query</td><td style="vertical-align:top;">:</td><td><div>db.events.id&gt;0</div></td></tr></table></div>'
tRp295
sS'etype'
p296
S"<class 'socket.error'>"
p297
sS'date'
p298
S'Thu May 07 16:30:24 2015'
p299
sS'response'
p300
g67
(S's\xf92\x00\x00<div><table><tr><td style="font-weight:bold;vertical-align:top;">body</td><td style="vertical-align:top;">:</td><td><div>&lt;cStringIO.StringO object at 0x08F7A5C0&gt;</div></td></tr><tr><td style="font-weight:bold;vertical-align:top;">cookies</td><td style="vertical-align:top;">:</td><td><div><table><tr><td style="font-weight:bold;vertical-align:top;">session_id_smartapp</td><td style="vertical-align:top;">:</td><td><div>127.0.0.1-71a174d4-dd42-4c92-a212-5ff3f9acb01f<table><tr><td style="font-weight:bold;vertical-align:top;">comment</td><td style="vertical-align:top;">:</td><td><div></div></td></tr><tr><td style="font-weight:bold;vertical-align:top;">domain</td><td style="vertical-align:top;">:</td><td><div></div></td></tr><tr><td style="font-weight:bold;vertical-align:top;">expires</td><td style="vertical-align:top;">:</td><td><div></div></td></tr><tr><td style="font-weight:bold;vertical-align:top;">httponly</td><td style="vertical-align:top;">:</td><td><div></div></td></tr><tr><td style="font-weight:bold;vertical-align:top;">max-age</td><td style="vertical-align:top;">:</td><td><div></div></td></tr><tr><td style="font-weight:bold;vertical-align:top;">path</td><td style="vertical-align:top;">:</td><td><div>/</div></td></tr><tr><td style="font-weight:bold;vertical-align:top;">secure</td><td style="vertical-align:top;">:</td><td><div></div></td></tr><tr><td style="font-weight:bold;vertical-align:top;">version</td><td style="vertical-align:top;">:</td><td><div></div></td></tr></table></div></td></tr></table></div></td></tr><tr><td style="font-weight:bold;vertical-align:top;">delimiters</td><td style="vertical-align:top;">:</td><td><div><table><tr><td><div>{{</div></td></tr><tr><td><div>}}</div></td></tr></table></div></td></tr><tr><td style="font-weight:bold;vertical-align:top;">files</td><td style="vertical-align:top;">:</td><td><div><table></table></div></td></tr><tr><td style="font-weight:bold;vertical-align:top;">flash</td><td style="vertical-align:top;">:</td><td><div></div></td></tr><tr><td style="font-weight:bold;vertical-align:top;">form_label_separator</td><td style="vertical-align:top;">:</td><td><div>: </div></td></tr><tr><td style="font-weight:bold;vertical-align:top;">formstyle</td><td style="vertical-align:top;">:</td><td><div>table3cols</div></td></tr><tr><td style="font-weight:bold;vertical-align:top;">generic_patterns</td><td style="vertical-align:top;">:</td><td><div><table><tr><td><div>*</div></td></tr></table></div></td></tr><tr><td style="font-weight:bold;vertical-align:top;">google_analytics_id</td><td style="vertical-align:top;">:</td><td><div>None</div></td></tr><tr><td style="font-weight:bold;vertical-align:top;">headers</td><td style="vertical-align:top;">:</td><td><div><table><tr><td style="font-weight:bold;vertical-align:top;">X-Powered-By</td><td style="vertical-align:top;">:</td><td><div>web2py</div></td></tr></table></div></td></tr><tr><td style="font-weight:bold;vertical-align:top;">logo</td><td style="vertical-align:top;">:</td><td><div><a class="brand" href="http://www.web2py.com/"><b>web<span>2</span>py</b>&trade;&nbsp;</a></div></td></tr><tr><td style="font-weight:bold;vertical-align:top;">menu</td><td style="vertical-align:top;">:</td><td><div><table><tr><td><div><table><tr><td><div>Home</div></td></tr><tr><td><div>False</div></td></tr><tr><td><div>/smartapp/default/index</div></td></tr><tr><td><div><table></table></div></td></tr></table></div></td></tr><tr><td><div><table><tr><td><div><span class="highlighted">web2py</span></div></td></tr><tr><td><div>False</div></td></tr><tr><td><div>http://web2py.com</div></td></tr><tr><td><div><table><tr><td><div><table><tr><td><div>My Sites</div></td></tr><tr><td><div>False</div></td></tr><tr><td><div>/admin/default/site</div></td></tr></table></div></td></tr><tr><td><div><table><tr><td><div>This App</div></td></tr><tr><td><div>False</div></td></tr><tr><td><div>/admin/default/design/smartapp</div></td></tr><tr><td><div>[(&lt;lazyT &#x27;Controller&#x27;&gt;, False, &#x27;/admin/default/edit/smartapp/controllers/default.py&#x27;), (&lt;lazyT &#x27;View&#x27;&gt;, False, &#x27;/admin/default/edit/smartapp/views/default/updateBeaconStatus.html&#x27;), (&lt;lazyT &#x27;Layout&#x27;&gt;, False, &#x27;/admin/default/edit/smartapp/views/layout.html&#x27;), (&lt;lazyT &#x27;Stylesheet&#x27;&gt;, False, &#x27;/admin/default/edit/smartapp/static/css/web2py.css&#x27;), (&lt;lazyT &#x27;DB Model&#x27;&gt;, False, &#x27;/admin/default/edit/smartapp/models/db.py&#x27;), (&lt;lazyT &#x27;Menu Model&#x27;&gt;, False, &#x27;/admin/default/edit/smartapp/models/menu.py&#x27;), (&lt;lazyT &#x27;Database&#x27;&gt;, False, &#x27;/smartapp/appadmin/index&#x27;), (&lt;lazyT &#x27;Errors&#x27;&gt;, False, &#x27;/admin/default/errors/smartapp&#x27;), (&lt;lazyT &#x27;About&#x27;&gt;, False, &#x27;/admin/default/about/smartapp&#x27;)]</div></td></tr></table></div></td></tr><tr><td><div><table><tr><td><div>web2py.com</div></td></tr><tr><td><div>False</div></td></tr><tr><td><div>http://www.web2py.com</div></td></tr><tr><td><div>[(&lt;lazyT &#x27;Download&#x27;&gt;, False, &#x27;http://www.web2py.com/examples/default/download&#x27;), (&lt;lazyT &#x27;Support&#x27;&gt;, False, &#x27;http://www.web2py.com/examples/default/support&#x27;), (&lt;lazyT &#x27;Demo&#x27;&gt;, False, &#x27;http://web2py.com/demo_admin&#x27;), (&lt;lazyT &#x27;Quick Examples&#x27;&gt;, False, &#x27;http://web2py.com/examples/default/examples&#x27;), (&lt;lazyT &#x27;FAQ&#x27;&gt;, False, &#x27;http://web2py.com/AlterEgo&#x27;), (&lt;lazyT &#x27;Videos&#x27;&gt;, False, &#x27;http://www.web2py.com/examples/default/videos/&#x27;), (&lt;lazyT &#x27;Free Applications&#x27;&gt;, False, &#x27;http://web2py.com/appliances&#x27;), (&lt;lazyT &#x27;Plugins&#x27;&gt;, False, &#x27;http://web2py.com/plugins&#x27;), (&lt;lazyT &#x27;Layouts&#x27;&gt;, False, &#x27;http://web2py.com/layouts&#x27;), (&lt;lazyT &#x27;Recipes&#x27;&gt;, False, &#x27;http://web2pyslices.com/&#x27;), (&lt;lazyT &#x27;Semantic&#x27;&gt;, False, &#x27;http://web2py.com/semantic&#x27;)]</div></td></tr></table></div></td></tr><tr><td><div><table><tr><td><div>Documentation</div></td></tr><tr><td><div>False</div></td></tr><tr><td><div>http://www.web2py.com/book</div></td></tr><tr><td><div>[(&lt;lazyT &#x27;Preface&#x27;&gt;, False, &#x27;http://www.web2py.com/book/default/chapter/00&#x27;), (&lt;lazyT &#x27;Introduction&#x27;&gt;, False, &#x27;http://www.web2py.com/book/default/chapter/01&#x27;), (&lt;lazyT &#x27;Python&#x27;&gt;, False, &#x27;http://www.web2py.com/book/default/chapter/02&#x27;), (&lt;lazyT &#x27;Overview&#x27;&gt;, False, &#x27;http://www.web2py.com/book/default/chapter/03&#x27;), (&lt;lazyT &#x27;The Core&#x27;&gt;, False, &#x27;http://www.web2py.com/book/default/chapter/04&#x27;), (&lt;lazyT &#x27;The Views&#x27;&gt;, False, &#x27;http://www.web2py.com/book/default/chapter/05&#x27;), (&lt;lazyT &#x27;Database&#x27;&gt;, False, &#x27;http://www.web2py.com/book/default/chapter/06&#x27;), (&lt;lazyT &#x27;Forms and Validators&#x27;&gt;, False, &#x27;http://www.web2py.com/book/default/chapter/07&#x27;), (&lt;lazyT &#x27;Email and SMS&#x27;&gt;, False, &#x27;http://www.web2py.com/book/default/chapter/08&#x27;), (&lt;lazyT &#x27;Access Control&#x27;&gt;, False, &#x27;http://www.web2py.com/book/default/chapter/09&#x27;), (&lt;lazyT &#x27;Services&#x27;&gt;, False, &#x27;http://www.web2py.com/book/default/chapter/10&#x27;), (&lt;lazyT &#x27;Ajax Recipes&#x27;&gt;, False, &#x27;http://www.web2py.com/book/default/chapter/11&#x27;), (&lt;lazyT &#x27;Components and Plugins&#x27;&gt;, False, &#x27;http://www.web2py.com/book/default/chapter/12&#x27;), (&lt;lazyT &#x27;Deployment Recipes&#x27;&gt;, False, &#x27;http://www.web2py.com/book/default/chapter/13&#x27;), (&lt;lazyT &#x27;Other Recipes&#x27;&gt;, False, &#x27;http://www.web2py.com/book/default/chapter/14&#x27;), (&lt;lazyT &#x27;Buy this book&#x27;&gt;, False, &#x27;http://stores.lulu.com/web2py&#x27;)]</div></td></tr></table></div></td></tr><tr><td><div><table><tr><td><div>Community</div></td></tr><tr><td><div>False</div></td></tr><tr><td><div>None</div></td></tr><tr><td><div>[(&lt;lazyT &#x27;Groups&#x27;&gt;, False, &#x27;http://www.web2py.com/examples/default/usergroups&#x27;), (&lt;lazyT &#x27;Twitter&#x27;&gt;, False, &#x27;http://twitter.com/web2py&#x27;), (&lt;lazyT &#x27;Live Chat&#x27;&gt;, False, &#x27;http://webchat.freenode.net/?channels=web2py&#x27;)]</div></td></tr></table></div></td></tr><tr><td><div><table><tr><td><div>Plugins</div></td></tr><tr><td><div>False</div></td></tr><tr><td><div>None</div></td></tr><tr><td><div>[(&#x27;plugin_wiki&#x27;, False, &#x27;http://web2py.com/examples/default/download&#x27;), (&lt;lazyT &#x27;Other Plugins&#x27;&gt;, False, &#x27;http://web2py.com/plugins&#x27;), (&lt;lazyT &#x27;Layout Plugins&#x27;&gt;, False, &#x27;http://web2py.com/layouts&#x27;)]</div></td></tr></table></div></td></tr></table></div></td></tr></table></div></td></tr></table></div></td></tr><tr><td style="font-weight:bold;vertical-align:top;">meta</td><td style="vertical-align:top;">:</td><td><div><table><tr><td style="font-weight:bold;vertical-align:top;">author</td><td style="vertical-align:top;">:</td><td><div>Your Name &lt;you@example.com&gt;</div></td></tr><tr><td style="font-weight:bold;vertical-align:top;">generator</td><td style="vertical-align:top;">:</td><td><div>Web2py Web Framework</div></td></tr><tr><td style="font-weight:bold;vertical-align:top;">keywords</td><td style="vertical-align:top;">:</td><td><div>web2py, python, framework</div></td></tr></table></div></td></tr><tr><td style="font-weight:bold;vertical-align:top;">models_to_run</td><td style="vertical-align:top;">:</td><td><div><table><tr><td><div>^\\w+\\.py$</div></td></tr><tr><td><div>^default/\\w+\\.py$</div></td></tr><tr><td><div>^default/updateBeaconStatus/\\w+\\.py$</div></td></tr></table></div></td></tr><tr><td style="font-weight:bold;vertical-align:top;">postprocessing</td><td style="vertical-align:top;">:</td><td><div><table></table></div></td></tr><tr><td style="font-weight:bold;vertical-align:top;">session_client</td><td style="vertical-align:top;">:</td><td><div>127.0.0.1</div></td></tr><tr><td style="font-weight:bold;vertical-align:top;">session_cookie_compression_level</td><td style="vertical-align:top;">:</td><td><div>None</div></td></tr><tr><td style="font-weight:bold;vertical-align:top;">session_cookie_expires</td><td style="vertical-align:top;">:</td><td><div>None</div></td></tr><tr><td style="font-weight:bold;vertical-align:top;">session_cookie_key</td><td style="vertical-align:top;">:</td><td><div>None</div></td></tr><tr><td style="font-weight:bold;vertical-align:top;">session_data_name</td><td style="vertical-align:top;">:</td><td><div>session_data_smartapp</div></td></tr><tr><td style="font-weight:bold;vertical-align:top;">session_file</td><td style="vertical-align:top;">:</td><td><div>&lt;open file &#x27;C:\\\\Users\\\\mansi\\\\Downloads\\\\web2py_src\\\\web2py\\\\applications\\\\smartapp\\\\sessions\\\\18b\\\\046\\\\127.0.0.1-71a174d4-dd42-4c92-a212-5ff3f9acb01f&#x27;, mode &#x27;rb+&#x27; at 0x09230DE0&gt;</div></td></tr><tr><td style="font-weight:bold;vertical-align:top;">session_filename</td><td style="vertical-align:top;">:</td><td><div>C:\\Users\\mansi\\Downloads\\web2py_src\\web2py\\applications\\smartapp\\sessions\\127.0.0.1-71a174d4-dd42-4c92-a212-5ff3f9acb01f</div></td></tr><tr><td style="font-weight:bold;vertical-align:top;">session_hash</td><td style="vertical-align:top;">:</td><td><div>8fd8c0c0e5ef15c334c839a02dc2b590</div></td></tr><tr><td style="font-weight:bold;vertical-align:top;">session_id</td><td style="vertical-align:top;">:</td><td><div>127.0.0.1-71a174d4-dd42-4c92-a212-5ff3f9acb01f</div></td></tr><tr><td style="font-weight:bold;vertical-align:top;">session_id_name</td><td style="vertical-align:top;">:</td><td><div>session_id_smartapp</div></td></tr><tr><td style="font-weight:bold;vertical-align:top;">session_locked</td><td style="vertical-align:top;">:</td><td><div>True</div></td></tr><tr><td style="font-weight:bold;vertical-align:top;">session_masterapp</td><td style="vertical-align:top;">:</td><td><div>smartapp</div></td></tr><tr><td style="font-weight:bold;vertical-align:top;">session_new</td><td style="vertical-align:top;">:</td><td><div>False</div></td></tr><tr><td style="font-weight:bold;vertical-align:top;">session_storage_type</td><td style="vertical-align:top;">:</td><td><div>file</div></td></tr><tr><td style="font-weight:bold;vertical-align:top;">status</td><td style="vertical-align:top;">:</td><td><div>200</div></td></tr><tr><td style="font-weight:bold;vertical-align:top;">subtitle</td><td style="vertical-align:top;">:</td><td><div></div></td></tr><tr><td style="font-weight:bold;vertical-align:top;">title</td><td style="vertical-align:top;">:</td><td><div>Smartapp</div></td></tr><tr><td style="font-weight:bold;vertical-align:top;">view</td><td style="vertical-align:top;">:</td><td><div>default/updateBeaconStatus.html</div></td></tr></table></div>'
tRp301
sS'locals'
p302
(dp303
S'err'
p304
S"error(10060, 'A connection attempt failed becaus...ed because connected host has failed to respond')"
p305
sS'af'
p306
S'2'
sS'res'
p307
S"(2, 1, 0, '', ('1.2.3.4', 1234))"
p308
sS'proto'
p309
S'0'
sS'sock'
p310
S'<socket._socketobject object>'
p311
sS'host'
p312
S"'1.2.3.4'"
p313
sS'_'
S"error(10060, 'A connection attempt failed becaus...ed because connected host has failed to respond')"
p314
sS'timeout'
p315
S'<object object>'
p316
sS'canonname'
p317
S"''"
p318
sS'socktype'
p319
S'1'
sS'sa'
p320
S"('1.2.3.4', 1234)"
p321
sS'source_address'
p322
S'None'
p323
sS'port'
p324
S'1234'
p325
sS'address'
p326
S"('1.2.3.4', 1234)"
p327
sssS'traceback'
p328
S'Traceback (most recent call last):\n  File "C:\\Users\\mansi\\Downloads\\web2py_src\\web2py\\gluon\\restricted.py", line 224, in restricted\n    exec ccode in environment\n  File "C:\\Users\\mansi\\Downloads\\web2py_src\\web2py\\applications\\smartapp\\controllers/default.py", line 428, in <module>\n  File "C:\\Users\\mansi\\Downloads\\web2py_src\\web2py\\gluon\\globals.py", line 393, in <lambda>\n    self._caller = lambda f: f()\n  File "C:\\Users\\mansi\\Downloads\\web2py_src\\web2py\\applications\\smartapp\\controllers/default.py", line 328, in updateBeaconStatus\n    connection.request(\'PUT\', \'url\',data_json,headers)\n  File "C:\\Python27\\lib\\httplib.py", line 1001, in request\n    self._send_request(method, url, body, headers)\n  File "C:\\Python27\\lib\\httplib.py", line 1035, in _send_request\n    self.endheaders(body)\n  File "C:\\Python27\\lib\\httplib.py", line 997, in endheaders\n    self._send_output(message_body)\n  File "C:\\Python27\\lib\\httplib.py", line 850, in _send_output\n    self.send(msg)\n  File "C:\\Python27\\lib\\httplib.py", line 812, in send\n    self.connect()\n  File "C:\\Python27\\lib\\httplib.py", line 793, in connect\n    self.timeout, self.source_address)\n  File "C:\\Python27\\lib\\socket.py", line 571, in create_connection\n    raise err\nerror: [Errno 10060] A connection attempt failed because the connected party did not properly respond after a period of time, or established connection failed because connected host has failed to respond\n'
p329
s.